

Microchip MPLAB XC8 Assembler V2.10 build 88905656 
                                                                                               Wed Jul 08 20:17:31 2020

Microchip MPLAB XC8 C Compiler v2.10 (Free license) build 20190730164152 Og1 
     1                           	processor	16F877A
     2                           	opt	pw 120
     3                           	opt	flic
     4                           	psect	idataBANK0,global,class=CODE,delta=2
     5                           	psect	cinit,global,class=CODE,merge=1,delta=2
     6                           	psect	bssCOMMON,global,class=COMMON,space=1,delta=1
     7                           	psect	bssBANK0,global,class=BANK0,space=1,delta=1
     8                           	psect	dataBANK0,global,class=BANK0,space=1,delta=1
     9                           	psect	clrtext,global,class=CODE,delta=2
    10                           	psect	cstackCOMMON,global,class=COMMON,space=1,delta=1
    11                           	psect	cstackBANK0,global,class=BANK0,space=1,delta=1
    12                           	psect	maintext,global,class=CODE,split=1,delta=2
    13                           	psect	text1,local,class=CODE,merge=1,delta=2
    14                           	psect	text2,local,class=CODE,merge=1,delta=2
    15                           	psect	text3,local,class=CODE,merge=1,delta=2
    16                           	psect	text4,local,class=CODE,merge=1,delta=2
    17                           	psect	text5,local,class=CODE,merge=1,delta=2
    18                           	psect	text6,local,class=CODE,merge=1,delta=2
    19                           	psect	text7,local,class=CODE,merge=1,delta=2
    20                           	psect	text8,local,class=CODE,merge=1,delta=2
    21                           	psect	text9,local,class=CODE,merge=1,delta=2
    22                           	psect	text10,local,class=CODE,merge=1,delta=2
    23                           	psect	text11,local,class=CODE,merge=1,delta=2
    24                           	psect	text12,local,class=CODE,merge=1,delta=2
    25                           	psect	text13,local,class=CODE,merge=1,delta=2,group=1
    26                           	psect	text14,local,class=CODE,merge=1,delta=2,group=1
    27                           	psect	text15,local,class=CODE,merge=1,delta=2
    28                           	psect	text16,local,class=CODE,merge=1,delta=2
    29                           	psect	text17,local,class=CODE,merge=1,delta=2
    30                           	psect	text18,local,class=CODE,merge=1,delta=2
    31                           	psect	text19,local,class=CODE,merge=1,delta=2
    32                           	psect	text20,local,class=CODE,merge=1,delta=2
    33                           	psect	text21,local,class=CODE,merge=1,delta=2,group=1
    34                           	psect	text22,local,class=CODE,merge=1,delta=2
    35                           	psect	text23,local,class=CODE,merge=1,delta=2
    36                           	psect	text24,local,class=CODE,merge=1,delta=2
    37                           	psect	text25,local,class=CODE,merge=1,delta=2
    38                           	psect	text26,local,class=CODE,merge=1,delta=2
    39                           	psect	text27,local,class=CODE,merge=1,delta=2
    40                           	psect	text28,local,class=CODE,merge=1,delta=2
    41                           	psect	text29,local,class=CODE,merge=1,delta=2
    42                           	psect	text30,local,class=CODE,merge=1,delta=2
    43                           	psect	text31,local,class=CODE,merge=1,delta=2
    44                           	psect	text32,local,class=CODE,merge=1,delta=2
    45                           	psect	text33,local,class=CODE,merge=1,delta=2
    46                           	psect	text34,local,class=CODE,merge=1,delta=2
    47                           	psect	text35,local,class=CODE,merge=1,delta=2
    48                           	psect	text36,local,class=CODE,merge=1,delta=2
    49                           	psect	text37,local,class=CODE,merge=1,delta=2,group=1
    50                           	psect	text38,local,class=CODE,merge=1,delta=2
    51                           	psect	intentry,global,class=CODE,delta=2
    52                           	psect	text39,local,class=CODE,merge=1,delta=2
    53                           	psect	text40,local,class=CODE,merge=1,delta=2
    54                           	psect	functab,global,class=ENTRY,delta=2
    55                           	dabs	1,0x7E,2
    56  0000                     
    57                           ; Version 2.10
    58                           ; Generated 31/07/2019 GMT
    59                           ; 
    60                           ; Copyright © 2019, Microchip Technology Inc. and its subsidiaries ("Microchip")
    61                           ; All rights reserved.
    62                           ; 
    63                           ; This software is developed by Microchip Technology Inc. and its subsidiaries ("Microch
      +                          ip").
    64                           ; 
    65                           ; Redistribution and use in source and binary forms, with or without modification, are
    66                           ; permitted provided that the following conditions are met:
    67                           ; 
    68                           ;     1. Redistributions of source code must retain the above copyright notice, this lis
      +                          t of
    69                           ;        conditions and the following disclaimer.
    70                           ; 
    71                           ;     2. Redistributions in binary form must reproduce the above copyright notice, this 
      +                          list
    72                           ;        of conditions and the following disclaimer in the documentation and/or other
    73                           ;        materials provided with the distribution.
    74                           ; 
    75                           ;     3. Microchip's name may not be used to endorse or promote products derived from th
      +                          is
    76                           ;        software without specific prior written permission.
    77                           ; 
    78                           ; THIS SOFTWARE IS PROVIDED BY MICROCHIP "AS IS" AND ANY EXPRESS OR IMPLIED WARRANTIES,
    79                           ; INCLUDING, BUT NOT LIMITED TO, THE IMPLIED WARRANTIES OF MERCHANTABILITY AND FITNESS F
      +                          OR
    80                           ; PURPOSE ARE DISCLAIMED.  IN NO EVENT SHALL MICROCHIP BE LIABLE FOR ANY DIRECT, INDIREC
      +                          T,
    81                           ; INCIDENTAL, SPECIAL, EXEMPLARY, OR CONSEQUENTIAL DAMAGES (INCLUDING BUT NOT LIMITED TO
    82                           ; PROCUREMENT OF SUBSTITUTE GOODS OR SERVICES; LOSS OF USE, DATA OR PROFITS; OR BUSINESS
    83                           ; INTERRUPTION) HOWSOEVER CAUSED AND ON ANY THEORY OF LIABILITY, WHETHER IN CONTRACT, ST
      +                          RICT
    84                           ; LIABILITY, OR TORT (INCLUDING NEGLIGENCE OR OTHERWISE) ARISING IN ANY WAY OUT OF THE U
      +                          SE OF
    85                           ; THIS SOFTWARE, EVEN IF ADVISED OF THE POSSIBILITY OF SUCH DAMAGE.
    86                           ; 
    87                           ; 
    88                           ; Code-generator required, PIC16F877A Definitions
    89                           ; 
    90                           ; SFR Addresses
    91  0000                     	;# 
    92  0001                     	;# 
    93  0002                     	;# 
    94  0003                     	;# 
    95  0004                     	;# 
    96  0005                     	;# 
    97  0006                     	;# 
    98  0007                     	;# 
    99  0008                     	;# 
   100  0009                     	;# 
   101  000A                     	;# 
   102  000B                     	;# 
   103  000C                     	;# 
   104  000D                     	;# 
   105  000E                     	;# 
   106  000E                     	;# 
   107  000F                     	;# 
   108  0010                     	;# 
   109  0011                     	;# 
   110  0012                     	;# 
   111  0013                     	;# 
   112  0014                     	;# 
   113  0015                     	;# 
   114  0015                     	;# 
   115  0016                     	;# 
   116  0017                     	;# 
   117  0018                     	;# 
   118  0019                     	;# 
   119  001A                     	;# 
   120  001B                     	;# 
   121  001B                     	;# 
   122  001C                     	;# 
   123  001D                     	;# 
   124  001E                     	;# 
   125  001F                     	;# 
   126  0081                     	;# 
   127  0085                     	;# 
   128  0086                     	;# 
   129  0087                     	;# 
   130  0088                     	;# 
   131  0089                     	;# 
   132  008C                     	;# 
   133  008D                     	;# 
   134  008E                     	;# 
   135  0091                     	;# 
   136  0092                     	;# 
   137  0093                     	;# 
   138  0094                     	;# 
   139  0098                     	;# 
   140  0099                     	;# 
   141  009C                     	;# 
   142  009D                     	;# 
   143  009E                     	;# 
   144  009F                     	;# 
   145  010C                     	;# 
   146  010D                     	;# 
   147  010E                     	;# 
   148  010F                     	;# 
   149  018C                     	;# 
   150  018D                     	;# 
   151  0000                     	;# 
   152  0001                     	;# 
   153  0002                     	;# 
   154  0003                     	;# 
   155  0004                     	;# 
   156  0005                     	;# 
   157  0006                     	;# 
   158  0007                     	;# 
   159  0008                     	;# 
   160  0009                     	;# 
   161  000A                     	;# 
   162  000B                     	;# 
   163  000C                     	;# 
   164  000D                     	;# 
   165  000E                     	;# 
   166  000E                     	;# 
   167  000F                     	;# 
   168  0010                     	;# 
   169  0011                     	;# 
   170  0012                     	;# 
   171  0013                     	;# 
   172  0014                     	;# 
   173  0015                     	;# 
   174  0015                     	;# 
   175  0016                     	;# 
   176  0017                     	;# 
   177  0018                     	;# 
   178  0019                     	;# 
   179  001A                     	;# 
   180  001B                     	;# 
   181  001B                     	;# 
   182  001C                     	;# 
   183  001D                     	;# 
   184  001E                     	;# 
   185  001F                     	;# 
   186  0081                     	;# 
   187  0085                     	;# 
   188  0086                     	;# 
   189  0087                     	;# 
   190  0088                     	;# 
   191  0089                     	;# 
   192  008C                     	;# 
   193  008D                     	;# 
   194  008E                     	;# 
   195  0091                     	;# 
   196  0092                     	;# 
   197  0093                     	;# 
   198  0094                     	;# 
   199  0098                     	;# 
   200  0099                     	;# 
   201  009C                     	;# 
   202  009D                     	;# 
   203  009E                     	;# 
   204  009F                     	;# 
   205  010C                     	;# 
   206  010D                     	;# 
   207  010E                     	;# 
   208  010F                     	;# 
   209  018C                     	;# 
   210  018D                     	;# 
   211  0000                     	;# 
   212  0001                     	;# 
   213  0002                     	;# 
   214  0003                     	;# 
   215  0004                     	;# 
   216  0005                     	;# 
   217  0006                     	;# 
   218  0007                     	;# 
   219  0008                     	;# 
   220  0009                     	;# 
   221  000A                     	;# 
   222  000B                     	;# 
   223  000C                     	;# 
   224  000D                     	;# 
   225  000E                     	;# 
   226  000E                     	;# 
   227  000F                     	;# 
   228  0010                     	;# 
   229  0011                     	;# 
   230  0012                     	;# 
   231  0013                     	;# 
   232  0014                     	;# 
   233  0015                     	;# 
   234  0015                     	;# 
   235  0016                     	;# 
   236  0017                     	;# 
   237  0018                     	;# 
   238  0019                     	;# 
   239  001A                     	;# 
   240  001B                     	;# 
   241  001B                     	;# 
   242  001C                     	;# 
   243  001D                     	;# 
   244  001E                     	;# 
   245  001F                     	;# 
   246  0081                     	;# 
   247  0085                     	;# 
   248  0086                     	;# 
   249  0087                     	;# 
   250  0088                     	;# 
   251  0089                     	;# 
   252  008C                     	;# 
   253  008D                     	;# 
   254  008E                     	;# 
   255  0091                     	;# 
   256  0092                     	;# 
   257  0093                     	;# 
   258  0094                     	;# 
   259  0098                     	;# 
   260  0099                     	;# 
   261  009C                     	;# 
   262  009D                     	;# 
   263  009E                     	;# 
   264  009F                     	;# 
   265  010C                     	;# 
   266  010D                     	;# 
   267  010E                     	;# 
   268  010F                     	;# 
   269  018C                     	;# 
   270  018D                     	;# 
   271  0000                     	;# 
   272  0001                     	;# 
   273  0002                     	;# 
   274  0003                     	;# 
   275  0004                     	;# 
   276  0005                     	;# 
   277  0006                     	;# 
   278  0007                     	;# 
   279  0008                     	;# 
   280  0009                     	;# 
   281  000A                     	;# 
   282  000B                     	;# 
   283  000C                     	;# 
   284  000D                     	;# 
   285  000E                     	;# 
   286  000E                     	;# 
   287  000F                     	;# 
   288  0010                     	;# 
   289  0011                     	;# 
   290  0012                     	;# 
   291  0013                     	;# 
   292  0014                     	;# 
   293  0015                     	;# 
   294  0015                     	;# 
   295  0016                     	;# 
   296  0017                     	;# 
   297  0018                     	;# 
   298  0019                     	;# 
   299  001A                     	;# 
   300  001B                     	;# 
   301  001B                     	;# 
   302  001C                     	;# 
   303  001D                     	;# 
   304  001E                     	;# 
   305  001F                     	;# 
   306  0081                     	;# 
   307  0085                     	;# 
   308  0086                     	;# 
   309  0087                     	;# 
   310  0088                     	;# 
   311  0089                     	;# 
   312  008C                     	;# 
   313  008D                     	;# 
   314  008E                     	;# 
   315  0091                     	;# 
   316  0092                     	;# 
   317  0093                     	;# 
   318  0094                     	;# 
   319  0098                     	;# 
   320  0099                     	;# 
   321  009C                     	;# 
   322  009D                     	;# 
   323  009E                     	;# 
   324  009F                     	;# 
   325  010C                     	;# 
   326  010D                     	;# 
   327  010E                     	;# 
   328  010F                     	;# 
   329  018C                     	;# 
   330  018D                     	;# 
   331  0000                     	;# 
   332  0001                     	;# 
   333  0002                     	;# 
   334  0003                     	;# 
   335  0004                     	;# 
   336  0005                     	;# 
   337  0006                     	;# 
   338  0007                     	;# 
   339  0008                     	;# 
   340  0009                     	;# 
   341  000A                     	;# 
   342  000B                     	;# 
   343  000C                     	;# 
   344  000D                     	;# 
   345  000E                     	;# 
   346  000E                     	;# 
   347  000F                     	;# 
   348  0010                     	;# 
   349  0011                     	;# 
   350  0012                     	;# 
   351  0013                     	;# 
   352  0014                     	;# 
   353  0015                     	;# 
   354  0015                     	;# 
   355  0016                     	;# 
   356  0017                     	;# 
   357  0018                     	;# 
   358  0019                     	;# 
   359  001A                     	;# 
   360  001B                     	;# 
   361  001B                     	;# 
   362  001C                     	;# 
   363  001D                     	;# 
   364  001E                     	;# 
   365  001F                     	;# 
   366  0081                     	;# 
   367  0085                     	;# 
   368  0086                     	;# 
   369  0087                     	;# 
   370  0088                     	;# 
   371  0089                     	;# 
   372  008C                     	;# 
   373  008D                     	;# 
   374  008E                     	;# 
   375  0091                     	;# 
   376  0092                     	;# 
   377  0093                     	;# 
   378  0094                     	;# 
   379  0098                     	;# 
   380  0099                     	;# 
   381  009C                     	;# 
   382  009D                     	;# 
   383  009E                     	;# 
   384  009F                     	;# 
   385  010C                     	;# 
   386  010D                     	;# 
   387  010E                     	;# 
   388  010F                     	;# 
   389  018C                     	;# 
   390  018D                     	;# 
   391  0000                     	;# 
   392  0001                     	;# 
   393  0002                     	;# 
   394  0003                     	;# 
   395  0004                     	;# 
   396  0005                     	;# 
   397  0006                     	;# 
   398  0007                     	;# 
   399  0008                     	;# 
   400  0009                     	;# 
   401  000A                     	;# 
   402  000B                     	;# 
   403  000C                     	;# 
   404  000D                     	;# 
   405  000E                     	;# 
   406  000E                     	;# 
   407  000F                     	;# 
   408  0010                     	;# 
   409  0011                     	;# 
   410  0012                     	;# 
   411  0013                     	;# 
   412  0014                     	;# 
   413  0015                     	;# 
   414  0015                     	;# 
   415  0016                     	;# 
   416  0017                     	;# 
   417  0018                     	;# 
   418  0019                     	;# 
   419  001A                     	;# 
   420  001B                     	;# 
   421  001B                     	;# 
   422  001C                     	;# 
   423  001D                     	;# 
   424  001E                     	;# 
   425  001F                     	;# 
   426  0081                     	;# 
   427  0085                     	;# 
   428  0086                     	;# 
   429  0087                     	;# 
   430  0088                     	;# 
   431  0089                     	;# 
   432  008C                     	;# 
   433  008D                     	;# 
   434  008E                     	;# 
   435  0091                     	;# 
   436  0092                     	;# 
   437  0093                     	;# 
   438  0094                     	;# 
   439  0098                     	;# 
   440  0099                     	;# 
   441  009C                     	;# 
   442  009D                     	;# 
   443  009E                     	;# 
   444  009F                     	;# 
   445  010C                     	;# 
   446  010D                     	;# 
   447  010E                     	;# 
   448  010F                     	;# 
   449  018C                     	;# 
   450  018D                     	;# 
   451  0000                     	;# 
   452  0001                     	;# 
   453  0002                     	;# 
   454  0003                     	;# 
   455  0004                     	;# 
   456  0005                     	;# 
   457  0006                     	;# 
   458  0007                     	;# 
   459  0008                     	;# 
   460  0009                     	;# 
   461  000A                     	;# 
   462  000B                     	;# 
   463  000C                     	;# 
   464  000D                     	;# 
   465  000E                     	;# 
   466  000E                     	;# 
   467  000F                     	;# 
   468  0010                     	;# 
   469  0011                     	;# 
   470  0012                     	;# 
   471  0013                     	;# 
   472  0014                     	;# 
   473  0015                     	;# 
   474  0015                     	;# 
   475  0016                     	;# 
   476  0017                     	;# 
   477  0018                     	;# 
   478  0019                     	;# 
   479  001A                     	;# 
   480  001B                     	;# 
   481  001B                     	;# 
   482  001C                     	;# 
   483  001D                     	;# 
   484  001E                     	;# 
   485  001F                     	;# 
   486  0081                     	;# 
   487  0085                     	;# 
   488  0086                     	;# 
   489  0087                     	;# 
   490  0088                     	;# 
   491  0089                     	;# 
   492  008C                     	;# 
   493  008D                     	;# 
   494  008E                     	;# 
   495  0091                     	;# 
   496  0092                     	;# 
   497  0093                     	;# 
   498  0094                     	;# 
   499  0098                     	;# 
   500  0099                     	;# 
   501  009C                     	;# 
   502  009D                     	;# 
   503  009E                     	;# 
   504  009F                     	;# 
   505  010C                     	;# 
   506  010D                     	;# 
   507  010E                     	;# 
   508  010F                     	;# 
   509  018C                     	;# 
   510  018D                     	;# 
   511  0000                     	;# 
   512  0001                     	;# 
   513  0002                     	;# 
   514  0003                     	;# 
   515  0004                     	;# 
   516  0005                     	;# 
   517  0006                     	;# 
   518  0007                     	;# 
   519  0008                     	;# 
   520  0009                     	;# 
   521  000A                     	;# 
   522  000B                     	;# 
   523  000C                     	;# 
   524  000D                     	;# 
   525  000E                     	;# 
   526  000E                     	;# 
   527  000F                     	;# 
   528  0010                     	;# 
   529  0011                     	;# 
   530  0012                     	;# 
   531  0013                     	;# 
   532  0014                     	;# 
   533  0015                     	;# 
   534  0015                     	;# 
   535  0016                     	;# 
   536  0017                     	;# 
   537  0018                     	;# 
   538  0019                     	;# 
   539  001A                     	;# 
   540  001B                     	;# 
   541  001B                     	;# 
   542  001C                     	;# 
   543  001D                     	;# 
   544  001E                     	;# 
   545  001F                     	;# 
   546  0081                     	;# 
   547  0085                     	;# 
   548  0086                     	;# 
   549  0087                     	;# 
   550  0088                     	;# 
   551  0089                     	;# 
   552  008C                     	;# 
   553  008D                     	;# 
   554  008E                     	;# 
   555  0091                     	;# 
   556  0092                     	;# 
   557  0093                     	;# 
   558  0094                     	;# 
   559  0098                     	;# 
   560  0099                     	;# 
   561  009C                     	;# 
   562  009D                     	;# 
   563  009E                     	;# 
   564  009F                     	;# 
   565  010C                     	;# 
   566  010D                     	;# 
   567  010E                     	;# 
   568  010F                     	;# 
   569  018C                     	;# 
   570  018D                     	;# 
   571  0000                     	;# 
   572  0001                     	;# 
   573  0002                     	;# 
   574  0003                     	;# 
   575  0004                     	;# 
   576  0005                     	;# 
   577  0006                     	;# 
   578  0007                     	;# 
   579  0008                     	;# 
   580  0009                     	;# 
   581  000A                     	;# 
   582  000B                     	;# 
   583  000C                     	;# 
   584  000D                     	;# 
   585  000E                     	;# 
   586  000E                     	;# 
   587  000F                     	;# 
   588  0010                     	;# 
   589  0011                     	;# 
   590  0012                     	;# 
   591  0013                     	;# 
   592  0014                     	;# 
   593  0015                     	;# 
   594  0015                     	;# 
   595  0016                     	;# 
   596  0017                     	;# 
   597  0018                     	;# 
   598  0019                     	;# 
   599  001A                     	;# 
   600  001B                     	;# 
   601  001B                     	;# 
   602  001C                     	;# 
   603  001D                     	;# 
   604  001E                     	;# 
   605  001F                     	;# 
   606  0081                     	;# 
   607  0085                     	;# 
   608  0086                     	;# 
   609  0087                     	;# 
   610  0088                     	;# 
   611  0089                     	;# 
   612  008C                     	;# 
   613  008D                     	;# 
   614  008E                     	;# 
   615  0091                     	;# 
   616  0092                     	;# 
   617  0093                     	;# 
   618  0094                     	;# 
   619  0098                     	;# 
   620  0099                     	;# 
   621  009C                     	;# 
   622  009D                     	;# 
   623  009E                     	;# 
   624  009F                     	;# 
   625  010C                     	;# 
   626  010D                     	;# 
   627  010E                     	;# 
   628  010F                     	;# 
   629  018C                     	;# 
   630  018D                     	;# 
   631  0000                     	;# 
   632  0001                     	;# 
   633  0002                     	;# 
   634  0003                     	;# 
   635  0004                     	;# 
   636  0005                     	;# 
   637  0006                     	;# 
   638  0007                     	;# 
   639  0008                     	;# 
   640  0009                     	;# 
   641  000A                     	;# 
   642  000B                     	;# 
   643  000C                     	;# 
   644  000D                     	;# 
   645  000E                     	;# 
   646  000E                     	;# 
   647  000F                     	;# 
   648  0010                     	;# 
   649  0011                     	;# 
   650  0012                     	;# 
   651  0013                     	;# 
   652  0014                     	;# 
   653  0015                     	;# 
   654  0015                     	;# 
   655  0016                     	;# 
   656  0017                     	;# 
   657  0018                     	;# 
   658  0019                     	;# 
   659  001A                     	;# 
   660  001B                     	;# 
   661  001B                     	;# 
   662  001C                     	;# 
   663  001D                     	;# 
   664  001E                     	;# 
   665  001F                     	;# 
   666  0081                     	;# 
   667  0085                     	;# 
   668  0086                     	;# 
   669  0087                     	;# 
   670  0088                     	;# 
   671  0089                     	;# 
   672  008C                     	;# 
   673  008D                     	;# 
   674  008E                     	;# 
   675  0091                     	;# 
   676  0092                     	;# 
   677  0093                     	;# 
   678  0094                     	;# 
   679  0098                     	;# 
   680  0099                     	;# 
   681  009C                     	;# 
   682  009D                     	;# 
   683  009E                     	;# 
   684  009F                     	;# 
   685  010C                     	;# 
   686  010D                     	;# 
   687  010E                     	;# 
   688  010F                     	;# 
   689  018C                     	;# 
   690  018D                     	;# 
   691  0000                     	;# 
   692  0001                     	;# 
   693  0002                     	;# 
   694  0003                     	;# 
   695  0004                     	;# 
   696  0005                     	;# 
   697  0006                     	;# 
   698  0007                     	;# 
   699  0008                     	;# 
   700  0009                     	;# 
   701  000A                     	;# 
   702  000B                     	;# 
   703  000C                     	;# 
   704  000D                     	;# 
   705  000E                     	;# 
   706  000E                     	;# 
   707  000F                     	;# 
   708  0010                     	;# 
   709  0011                     	;# 
   710  0012                     	;# 
   711  0013                     	;# 
   712  0014                     	;# 
   713  0015                     	;# 
   714  0015                     	;# 
   715  0016                     	;# 
   716  0017                     	;# 
   717  0018                     	;# 
   718  0019                     	;# 
   719  001A                     	;# 
   720  001B                     	;# 
   721  001B                     	;# 
   722  001C                     	;# 
   723  001D                     	;# 
   724  001E                     	;# 
   725  001F                     	;# 
   726  0081                     	;# 
   727  0085                     	;# 
   728  0086                     	;# 
   729  0087                     	;# 
   730  0088                     	;# 
   731  0089                     	;# 
   732  008C                     	;# 
   733  008D                     	;# 
   734  008E                     	;# 
   735  0091                     	;# 
   736  0092                     	;# 
   737  0093                     	;# 
   738  0094                     	;# 
   739  0098                     	;# 
   740  0099                     	;# 
   741  009C                     	;# 
   742  009D                     	;# 
   743  009E                     	;# 
   744  009F                     	;# 
   745  010C                     	;# 
   746  010D                     	;# 
   747  010E                     	;# 
   748  010F                     	;# 
   749  018C                     	;# 
   750  018D                     	;# 
   751  0000                     	;# 
   752  0001                     	;# 
   753  0002                     	;# 
   754  0003                     	;# 
   755  0004                     	;# 
   756  0005                     	;# 
   757  0006                     	;# 
   758  0007                     	;# 
   759  0008                     	;# 
   760  0009                     	;# 
   761  000A                     	;# 
   762  000B                     	;# 
   763  000C                     	;# 
   764  000D                     	;# 
   765  000E                     	;# 
   766  000E                     	;# 
   767  000F                     	;# 
   768  0010                     	;# 
   769  0011                     	;# 
   770  0012                     	;# 
   771  0013                     	;# 
   772  0014                     	;# 
   773  0015                     	;# 
   774  0015                     	;# 
   775  0016                     	;# 
   776  0017                     	;# 
   777  0018                     	;# 
   778  0019                     	;# 
   779  001A                     	;# 
   780  001B                     	;# 
   781  001B                     	;# 
   782  001C                     	;# 
   783  001D                     	;# 
   784  001E                     	;# 
   785  001F                     	;# 
   786  0081                     	;# 
   787  0085                     	;# 
   788  0086                     	;# 
   789  0087                     	;# 
   790  0088                     	;# 
   791  0089                     	;# 
   792  008C                     	;# 
   793  008D                     	;# 
   794  008E                     	;# 
   795  0091                     	;# 
   796  0092                     	;# 
   797  0093                     	;# 
   798  0094                     	;# 
   799  0098                     	;# 
   800  0099                     	;# 
   801  009C                     	;# 
   802  009D                     	;# 
   803  009E                     	;# 
   804  009F                     	;# 
   805  010C                     	;# 
   806  010D                     	;# 
   807  010E                     	;# 
   808  010F                     	;# 
   809  018C                     	;# 
   810  018D                     	;# 
   811                           
   812                           	psect	idataBANK0
   813  0CC2                     __pidataBANK0:	
   814                           
   815                           ;initializer for _displayFlag
   816  0CC2  34FF               	retlw	255
   817                           
   818                           ;initializer for _counter
   819  0CC3  343C               	retlw	60
   820                           
   821                           ;initializer for _ssdState
   822  0CC4  3401               	retlw	1
   823  0013                     _SSPBUF	set	19
   824  000C                     _PIR1	set	12
   825  0009                     _PORTE	set	9
   826  0008                     _PORTD	set	8
   827  0007                     _PORTC	set	7
   828  0006                     _PORTB	set	6
   829  0005                     _PORTA	set	5
   830  0063                     _SSPIF	set	99
   831  00A0                     _SSPM0	set	160
   832  00A1                     _SSPM1	set	161
   833  00A2                     _SSPM2	set	162
   834  00A3                     _SSPM3	set	163
   835  00A5                     _SSPEN	set	165
   836  005D                     _TMR0IE	set	93
   837  005F                     _GIE	set	95
   838  005E                     _PEIE	set	94
   839  0061                     _TMR2IF	set	97
   840  0060                     _TMR1IF	set	96
   841  005A                     _TMR0IF	set	90
   842  0093                     _SSPADD	set	147
   843  0094                     _SSPSTAT	set	148
   844  0091                     _SSPCON2	set	145
   845  0089                     _TRISE	set	137
   846  0088                     _TRISD	set	136
   847  0087                     _TRISC	set	135
   848  0086                     _TRISB	set	134
   849  0085                     _TRISA	set	133
   850  048B                     _RCEN	set	1163
   851  048E                     _ACKSTAT	set	1166
   852  048C                     _ACKEN	set	1164
   853  048D                     _ACKDT	set	1165
   854  0489                     _RSEN	set	1161
   855  048A                     _PEN	set	1162
   856  0488                     _SEN	set	1160
   857  040A                     _PS2	set	1034
   858  0409                     _PS1	set	1033
   859  0408                     _PS0	set	1032
   860  040B                     _PSA	set	1035
   861  040D                     _T0CS	set	1037
   862  010C                     _EEDATA	set	268
   863  010D                     _EEADR	set	269
   864  018D                     _EECON2	set	397
   865  0C60                     _RD	set	3168
   866  0C62                     _WREN	set	3170
   867  0C61                     _WR	set	3169
   868                           
   869                           ; #config settings
   870  0000                     
   871                           	psect	cinit
   872  0015                     start_initialization:	
   873  0015                     __initialization:	
   874                           
   875                           ; Initialize objects allocated to BANK0
   876  0015  120A  158A  24C2  120A  118A  	fcall	__pidataBANK0	;fetch initializer
   877  001A  00E4               	movwf	__pdataBANK0& (0+127)
   878  001B  120A  158A  24C3  120A  118A  	fcall	__pidataBANK0+1	;fetch initializer
   879  0020  00E5               	movwf	(__pdataBANK0+1)& (0+127)
   880  0021  120A  158A  24C4  120A  118A  	fcall	__pidataBANK0+2	;fetch initializer
   881  0026  00E6               	movwf	(__pdataBANK0+2)& (0+127)
   882                           
   883                           ; Clear objects allocated to BANK0
   884  0027  1383               	bcf	3,7	;select IRP bank0
   885  0028  3020               	movlw	low __pbssBANK0
   886  0029  0084               	movwf	4
   887  002A  304D               	movlw	low (__pbssBANK0+45)
   888  002B  120A  158A  24D9  120A  118A  	fcall	clear_ram0
   889                           
   890                           ; Clear objects allocated to COMMON
   891  0030  01FB               	clrf	__pbssCOMMON& (0+127)
   892  0031  01FC               	clrf	(__pbssCOMMON+1)& (0+127)
   893  0032  01FD               	clrf	(__pbssCOMMON+2)& (0+127)
   894  0033                     end_of_initialization:	
   895                           ;End of C runtime variable initialization code
   896                           
   897  0033                     __end_of__initialization:	
   898  0033  0183               	clrf	3
   899  0034  120A  118A  2DE2   	ljmp	_main	;jump to C main() function
   900                           
   901                           	psect	bssCOMMON
   902  007B                     __pbssCOMMON:	
   903  007B                     _timer2_isr:	
   904  007B                     	ds	1
   905  007C                     _timer1_isr:	
   906  007C                     	ds	1
   907  007D                     _timer0_isr:	
   908  007D                     	ds	1
   909                           
   910                           	psect	bssBANK0
   911  0020                     __pbssBANK0:	
   912  0020                     _sch_tasks:	
   913  0020                     	ds	39
   914  0047                     _settingModeSecondsCounter:	
   915  0047                     	ds	2
   916  0049                     _ssdSymbol:	
   917  0049                     	ds	2
   918  004B                     _settingModeFlag:	
   919  004B                     	ds	1
   920  004C                     _buttonPressedFlag:	
   921  004C                     	ds	1
   922                           
   923                           	psect	dataBANK0
   924  0064                     __pdataBANK0:	
   925  0064                     _displayFlag:	
   926  0064                     	ds	1
   927  0065                     _counter:	
   928  0065                     	ds	1
   929  0066                     _ssdState:	
   930  0066                     	ds	1
   931                           
   932                           	psect	clrtext
   933  0CD9                     clear_ram0:	
   934                           ;	Called with FSR containing the base address, and
   935                           ;	W with the last address+1
   936                           
   937  0CD9  0064               	clrwdt	;clear the watchdog before getting into this loop
   938  0CDA                     clrloop0:	
   939  0CDA  0180               	clrf	0	;clear RAM location pointed to by FSR
   940  0CDB  0A84               	incf	4,f	;increment pointer
   941  0CDC  0604               	xorwf	4,w	;XOR with final address
   942  0CDD  1903               	btfsc	3,2	;have we reached the end yet?
   943  0CDE  3400               	retlw	0	;all done for this memory range, return
   944  0CDF  0604               	xorwf	4,w	;XOR again to restore value
   945  0CE0  2CDA               	goto	clrloop0	;do the next byte
   946                           
   947                           	psect	cstackCOMMON
   948  0070                     __pcstackCOMMON:	
   949  0070                     ?_ssd_vid_init:	
   950  0070                     ?_i2c_vid_master_init:	
   951                           ; 1 bytes @ 0x0
   952                           
   953  0070                     ?_counter_vid_init:	
   954                           ; 1 bytes @ 0x0
   955                           
   956  0070                     ?_sch_vid_init:	
   957                           ; 1 bytes @ 0x0
   958                           
   959  0070                     ?_counter_vid_update:	
   960                           ; 1 bytes @ 0x0
   961                           
   962  0070                     ?_display_vid_blink:	
   963                           ; 1 bytes @ 0x0
   964                           
   965  0070                     ?_ssd_vid_update:	
   966                           ; 1 bytes @ 0x0
   967                           
   968  0070                     ?_sch_vid_dispatch_tasks:	
   969                           ; 1 bytes @ 0x0
   970                           
   971  0070                     ?_ssd_u8_get_code:	
   972                           ; 1 bytes @ 0x0
   973                           
   974  0070                     ?_sch_vid_delete_task:	
   975                           ; 1 bytes @ 0x0
   976                           
   977  0070                     ?_timer_vid_set_isr_0:	
   978                           ; 1 bytes @ 0x0
   979                           
   980  0070                     ?_sch_update:	
   981                           ; 1 bytes @ 0x0
   982                           
   983  0070                     ?_i2c_vid_wait:	
   984                           ; 1 bytes @ 0x0
   985                           
   986  0070                     ?_dio_u8_read_port_value:	
   987                           ; 1 bytes @ 0x0
   988                           
   989  0070                     ?_ssd_vid_set_symbol:	
   990                           ; 1 bytes @ 0x0
   991                           
   992  0070                     ?_ssd_u8_get_state:	
   993                           ; 1 bytes @ 0x0
   994                           
   995  0070                     ?_ssd_vid_set_state:	
   996                           ; 1 bytes @ 0x0
   997                           
   998  0070                     ?_timer_isr:	
   999                           ; 1 bytes @ 0x0
  1000                           
  1001  0070                     ?_i2c_vid_start:	
  1002                           ; 1 bytes @ 0x0
  1003                           
  1004  0070                     ?_i2c_vid_stop:	
  1005                           ; 1 bytes @ 0x0
  1006                           
  1007  0070                     ?_i2c_vid_restart:	
  1008                           ; 1 bytes @ 0x0
  1009                           
  1010  0070                     ?_i2c_vid_nack:	
  1011                           ; 1 bytes @ 0x0
  1012                           
  1013  0070                     ?_i2c_u8_master_write_slave_address_with_write_req:	
  1014                           ; 1 bytes @ 0x0
  1015                           
  1016  0070                     ?_i2c_u8_master_write_slave_address_with_read_req:	
  1017                           ; 1 bytes @ 0x0
  1018                           
  1019  0070                     ?_i2c_u8_master_write_byte:	
  1020                           ; 1 bytes @ 0x0
  1021                           
  1022  0070                     ?_i2c_u8_master_read_byte:	
  1023                           ; 1 bytes @ 0x0
  1024                           
  1025  0070                     ?_eeprom_external_vid_read:	
  1026                           ; 1 bytes @ 0x0
  1027                           
  1028  0070                     ?i1___bmul:	
  1029                           ; 1 bytes @ 0x0
  1030                           
  1031  0070                     ?_main:	
  1032                           ; 1 bytes @ 0x0
  1033                           
  1034  0070                     i1___bmul@multiplicand:	
  1035                           ; 2 bytes @ 0x0
  1036                           
  1037                           
  1038                           ; 1 bytes @ 0x0
  1039  0070                     	ds	1
  1040  0071                     ??i1___bmul:	
  1041                           
  1042                           ; 1 bytes @ 0x1
  1043  0071                     	ds	1
  1044  0072                     i1___bmul@multiplier:	
  1045                           
  1046                           ; 1 bytes @ 0x2
  1047  0072                     	ds	1
  1048  0073                     i1___bmul@product:	
  1049                           
  1050                           ; 1 bytes @ 0x3
  1051  0073                     	ds	1
  1052  0074                     ??_sch_update:	
  1053                           
  1054                           ; 1 bytes @ 0x4
  1055  0074                     	ds	6
  1056  007A                     sch_update@index:	
  1057                           
  1058                           ; 1 bytes @ 0xA
  1059  007A                     	ds	1
  1060                           
  1061                           	psect	cstackBANK0
  1062  004D                     __pcstackBANK0:	
  1063  004D                     ??_timer_isr:	
  1064                           
  1065                           ; 1 bytes @ 0x0
  1066  004D                     	ds	6
  1067  0053                     ??_ssd_u8_get_code:	
  1068  0053                     ??_timer_vid_set_isr_0:	
  1069                           ; 1 bytes @ 0x6
  1070                           
  1071  0053                     ?_timer_vid_init_0:	
  1072                           ; 1 bytes @ 0x6
  1073                           
  1074  0053                     ??_i2c_vid_wait:	
  1075                           ; 1 bytes @ 0x6
  1076                           
  1077  0053                     ?_dio_vid_set_port_direction:	
  1078                           ; 1 bytes @ 0x6
  1079                           
  1080  0053                     ??_dio_u8_read_port_value:	
  1081                           ; 1 bytes @ 0x6
  1082                           
  1083  0053                     ?_dio_vid_set_pin_value:	
  1084                           ; 1 bytes @ 0x6
  1085                           
  1086  0053                     ?_dio_vid_set_pin_direction:	
  1087                           ; 1 bytes @ 0x6
  1088                           
  1089  0053                     ??_ssd_vid_set_symbol:	
  1090                           ; 1 bytes @ 0x6
  1091                           
  1092  0053                     ??_ssd_u8_get_state:	
  1093                           ; 1 bytes @ 0x6
  1094                           
  1095  0053                     ??_ssd_vid_set_state:	
  1096                           ; 1 bytes @ 0x6
  1097                           
  1098  0053                     ??_i2c_vid_start:	
  1099                           ; 1 bytes @ 0x6
  1100                           
  1101  0053                     ??_i2c_vid_stop:	
  1102                           ; 1 bytes @ 0x6
  1103                           
  1104  0053                     ??_i2c_vid_restart:	
  1105                           ; 1 bytes @ 0x6
  1106                           
  1107  0053                     ??_i2c_vid_nack:	
  1108                           ; 1 bytes @ 0x6
  1109                           
  1110  0053                     ??_i2c_u8_master_write_slave_address_with_write_req:	
  1111                           ; 1 bytes @ 0x6
  1112                           
  1113  0053                     ??_i2c_u8_master_write_slave_address_with_read_req:	
  1114                           ; 1 bytes @ 0x6
  1115                           
  1116  0053                     ??_i2c_u8_master_write_byte:	
  1117                           ; 1 bytes @ 0x6
  1118                           
  1119  0053                     ??_i2c_u8_master_read_byte:	
  1120                           ; 1 bytes @ 0x6
  1121                           
  1122  0053                     ?___bmul:	
  1123                           ; 1 bytes @ 0x6
  1124                           
  1125  0053                     ?___awmod:	
  1126                           ; 1 bytes @ 0x6
  1127                           
  1128  0053                     ?___lwdiv:	
  1129                           ; 2 bytes @ 0x6
  1130                           
  1131  0053                     ?___lwmod:	
  1132                           ; 2 bytes @ 0x6
  1133                           
  1134  0053                     dio_vid_set_port_direction@direction:	
  1135                           ; 2 bytes @ 0x6
  1136                           
  1137  0053                     dio_vid_set_pin_value@index:	
  1138                           ; 1 bytes @ 0x6
  1139                           
  1140  0053                     dio_vid_set_pin_direction@index:	
  1141                           ; 1 bytes @ 0x6
  1142                           
  1143  0053                     i2c_u8_master_write_slave_address_with_read_req@address:	
  1144                           ; 1 bytes @ 0x6
  1145                           
  1146  0053                     i2c_u8_master_write_byte@data:	
  1147                           ; 1 bytes @ 0x6
  1148                           
  1149  0053                     ___bmul@multiplicand:	
  1150                           ; 1 bytes @ 0x6
  1151                           
  1152  0053                     timer_vid_init_0@prescaler:	
  1153                           ; 1 bytes @ 0x6
  1154                           
  1155  0053                     ___awmod@divisor:	
  1156                           ; 2 bytes @ 0x6
  1157                           
  1158  0053                     ___lwdiv@divisor:	
  1159                           ; 2 bytes @ 0x6
  1160                           
  1161  0053                     ___lwmod@divisor:	
  1162                           ; 2 bytes @ 0x6
  1163                           
  1164                           
  1165                           ; 2 bytes @ 0x6
  1166  0053                     	ds	1
  1167  0054                     ??_dio_vid_set_port_direction:	
  1168  0054                     ??___bmul:	
  1169                           ; 1 bytes @ 0x7
  1170                           
  1171  0054                     dio_vid_set_pin_value@value:	
  1172                           ; 1 bytes @ 0x7
  1173                           
  1174  0054                     dio_vid_set_pin_direction@direction:	
  1175                           ; 1 bytes @ 0x7
  1176                           
  1177  0054                     ssd_vid_set_state@state:	
  1178                           ; 1 bytes @ 0x7
  1179                           
  1180  0054                     timer_vid_set_isr_0@callback_function:	
  1181                           ; 1 bytes @ 0x7
  1182                           
  1183  0054                     i2c_u8_master_write_slave_address_with_write_req@address:	
  1184                           ; 1 bytes @ 0x7
  1185                           
  1186                           
  1187                           ; 1 bytes @ 0x7
  1188  0054                     	ds	1
  1189  0055                     ??_display_vid_blink:	
  1190  0055                     ??_dio_vid_set_pin_value:	
  1191                           ; 1 bytes @ 0x8
  1192                           
  1193  0055                     ??_dio_vid_set_pin_direction:	
  1194                           ; 1 bytes @ 0x8
  1195                           
  1196  0055                     ?_eeprom_external_vid_write:	
  1197                           ; 1 bytes @ 0x8
  1198                           
  1199  0055                     ??_eeprom_external_vid_read:	
  1200                           ; 1 bytes @ 0x8
  1201                           
  1202  0055                     dio_u8_read_port_value@portNumber:	
  1203                           ; 1 bytes @ 0x8
  1204                           
  1205  0055                     ssd_vid_set_symbol@symbol:	
  1206                           ; 1 bytes @ 0x8
  1207                           
  1208  0055                     ssd_u8_get_code@number:	
  1209                           ; 1 bytes @ 0x8
  1210                           
  1211  0055                     timer_vid_init_0@interruptEnable:	
  1212                           ; 1 bytes @ 0x8
  1213                           
  1214  0055                     eeprom_external_vid_write@data:	
  1215                           ; 1 bytes @ 0x8
  1216                           
  1217  0055                     ___bmul@product:	
  1218                           ; 1 bytes @ 0x8
  1219                           
  1220  0055                     ___awmod@dividend:	
  1221                           ; 1 bytes @ 0x8
  1222                           
  1223  0055                     ___lwdiv@dividend:	
  1224                           ; 2 bytes @ 0x8
  1225                           
  1226  0055                     ___lwmod@dividend:	
  1227                           ; 2 bytes @ 0x8
  1228                           
  1229                           
  1230                           ; 2 bytes @ 0x8
  1231  0055                     	ds	1
  1232  0056                     ??_timer_vid_init_0:	
  1233  0056                     ?_dio_vid_set_port_value:	
  1234                           ; 1 bytes @ 0x9
  1235                           
  1236  0056                     ?_dio_u8_read_pin_value:	
  1237                           ; 1 bytes @ 0x9
  1238                           
  1239  0056                     ??_eeprom_external_vid_write:	
  1240                           ; 1 bytes @ 0x9
  1241                           
  1242  0056                     dio_vid_set_port_direction@portNumber:	
  1243                           ; 1 bytes @ 0x9
  1244                           
  1245  0056                     dio_vid_set_port_value@value:	
  1246                           ; 1 bytes @ 0x9
  1247                           
  1248  0056                     dio_u8_read_pin_value@index:	
  1249                           ; 1 bytes @ 0x9
  1250                           
  1251  0056                     eeprom_external_vid_write@address:	
  1252                           ; 1 bytes @ 0x9
  1253                           
  1254  0056                     eeprom_external_vid_read@address:	
  1255                           ; 1 bytes @ 0x9
  1256                           
  1257  0056                     ___bmul@multiplier:	
  1258                           ; 1 bytes @ 0x9
  1259                           
  1260                           
  1261                           ; 1 bytes @ 0x9
  1262  0056                     	ds	1
  1263  0057                     ?_sch_u8_add_task:	
  1264  0057                     ??_sch_vid_delete_task:	
  1265                           ; 1 bytes @ 0xA
  1266                           
  1267  0057                     ??_dio_vid_set_port_value:	
  1268                           ; 1 bytes @ 0xA
  1269                           
  1270  0057                     ??_dio_u8_read_pin_value:	
  1271                           ; 1 bytes @ 0xA
  1272                           
  1273  0057                     ??___awmod:	
  1274                           ; 1 bytes @ 0xA
  1275                           
  1276  0057                     ??___lwdiv:	
  1277                           ; 1 bytes @ 0xA
  1278                           
  1279  0057                     ??___lwmod:	
  1280                           ; 1 bytes @ 0xA
  1281                           
  1282  0057                     dio_vid_set_pin_value@portNumber:	
  1283                           ; 1 bytes @ 0xA
  1284                           
  1285  0057                     dio_vid_set_pin_direction@portNumber:	
  1286                           ; 1 bytes @ 0xA
  1287                           
  1288  0057                     eeprom_external_vid_read@data:	
  1289                           ; 1 bytes @ 0xA
  1290                           
  1291  0057                     sch_u8_add_task@delay:	
  1292                           ; 1 bytes @ 0xA
  1293                           
  1294                           
  1295                           ; 4 bytes @ 0xA
  1296  0057                     	ds	1
  1297  0058                     ??_ssd_vid_init:	
  1298  0058                     ??_i2c_vid_master_init:	
  1299                           ; 1 bytes @ 0xB
  1300                           
  1301  0058                     dio_u8_read_pin_value@portNumber:	
  1302                           ; 1 bytes @ 0xB
  1303                           
  1304  0058                     sch_vid_delete_task@index:	
  1305                           ; 1 bytes @ 0xB
  1306                           
  1307  0058                     ___awmod@counter:	
  1308                           ; 1 bytes @ 0xB
  1309                           
  1310  0058                     ___lwmod@counter:	
  1311                           ; 1 bytes @ 0xB
  1312                           
  1313  0058                     ___lwdiv@quotient:	
  1314                           ; 1 bytes @ 0xB
  1315                           
  1316                           
  1317                           ; 2 bytes @ 0xB
  1318  0058                     	ds	1
  1319  0059                     ??_sch_vid_init:	
  1320  0059                     dio_vid_set_port_value@portNumber:	
  1321                           ; 1 bytes @ 0xC
  1322                           
  1323  0059                     dio_u8_read_pin_value@port:	
  1324                           ; 1 bytes @ 0xC
  1325                           
  1326  0059                     ___awmod@sign:	
  1327                           ; 1 bytes @ 0xC
  1328                           
  1329                           
  1330                           ; 1 bytes @ 0xC
  1331  0059                     	ds	1
  1332  005A                     ??_counter_vid_init:	
  1333  005A                     ??_counter_vid_update:	
  1334                           ; 1 bytes @ 0xD
  1335                           
  1336  005A                     sch_vid_init@i:	
  1337                           ; 1 bytes @ 0xD
  1338                           
  1339  005A                     ___lwdiv@counter:	
  1340                           ; 1 bytes @ 0xD
  1341                           
  1342                           
  1343                           ; 1 bytes @ 0xD
  1344  005A                     	ds	1
  1345  005B                     ??_ssd_vid_update:	
  1346  005B                     sch_u8_add_task@period:	
  1347                           ; 1 bytes @ 0xE
  1348                           
  1349                           
  1350                           ; 4 bytes @ 0xE
  1351  005B                     	ds	1
  1352  005C                     ssd_vid_update@ones:	
  1353                           
  1354                           ; 1 bytes @ 0xF
  1355  005C                     	ds	1
  1356  005D                     ssd_vid_update@tens:	
  1357                           
  1358                           ; 1 bytes @ 0x10
  1359  005D                     	ds	1
  1360  005E                     ??_sch_vid_dispatch_tasks:	
  1361                           
  1362                           ; 1 bytes @ 0x11
  1363  005E                     	ds	1
  1364  005F                     ??_sch_u8_add_task:	
  1365                           
  1366                           ; 1 bytes @ 0x12
  1367  005F                     	ds	2
  1368  0061                     sch_u8_add_task@taskFunction:	
  1369                           
  1370                           ; 1 bytes @ 0x14
  1371  0061                     	ds	1
  1372  0062                     sch_u8_add_task@index:	
  1373                           
  1374                           ; 1 bytes @ 0x15
  1375  0062                     	ds	1
  1376  0063                     sch_vid_dispatch_tasks@index:	
  1377                           
  1378                           ; 1 bytes @ 0x16
  1379  0063                     	ds	1
  1380  0064                     ??_main:	
  1381                           
  1382                           	psect	maintext
  1383  05E2                     __pmaintext:	
  1384                           ; 1 bytes @ 0x17
  1385 ;;
  1386 ;;Main: autosize = 0, tempsize = 0, incstack = 0, save=0
  1387 ;;
  1388 ;; *************** function _main *****************
  1389 ;; Defined at:
  1390 ;;		line 25 in file "main.c"
  1391 ;; Parameters:    Size  Location     Type
  1392 ;;		None
  1393 ;; Auto vars:     Size  Location     Type
  1394 ;;		None
  1395 ;; Return value:  Size  Location     Type
  1396 ;;                  2   22[None  ] int 
  1397 ;; Registers used:
  1398 ;;		wreg, fsr0l, fsr0h, status,2, status,0, btemp+1, pclath, cstack
  1399 ;; Tracked objects:
  1400 ;;		On entry : B00/0
  1401 ;;		On exit  : 0/0
  1402 ;;		Unchanged: 0/0
  1403 ;; Data sizes:     COMMON   BANK0   BANK1   BANK3   BANK2
  1404 ;;      Params:         0       0       0       0       0
  1405 ;;      Locals:         0       0       0       0       0
  1406 ;;      Temps:          0       0       0       0       0
  1407 ;;      Totals:         0       0       0       0       0
  1408 ;;Total ram usage:        0 bytes
  1409 ;; Hardware stack levels required when called:    8
  1410 ;; This function calls:
  1411 ;;		_counter_vid_init
  1412 ;;		_i2c_vid_master_init
  1413 ;;		_sch_u8_add_task
  1414 ;;		_sch_vid_dispatch_tasks
  1415 ;;		_sch_vid_init
  1416 ;;		_ssd_vid_init
  1417 ;; This function is called by:
  1418 ;;		Startup code after reset
  1419 ;; This function uses a non-reentrant model
  1420 ;;
  1421                           
  1422                           
  1423                           ;psect for function _main
  1424  05E2                     _main:	
  1425  05E2                     l2736:	
  1426                           ;incstack = 0
  1427                           ; Regs used in _main: [wreg-fsr0h+status,2+status,0+btemp+1+pclath+cstack]
  1428                           
  1429                           
  1430                           ;main.c: 26:     ssd_vid_init();
  1431  05E2  120A  158A  25BB  120A  118A  	fcall	_ssd_vid_init
  1432                           
  1433                           ;main.c: 27:     i2c_vid_master_init();
  1434  05E7  120A  158A  2631  120A  118A  	fcall	_i2c_vid_master_init
  1435                           
  1436                           ;main.c: 28:     counter_vid_init();
  1437  05EC  120A  118A  26AC  120A  118A  	fcall	_counter_vid_init
  1438                           
  1439                           ;main.c: 29:     sch_vid_init();
  1440  05F1  120A  158A  2608  120A  118A  	fcall	_sch_vid_init
  1441                           
  1442                           ;main.c: 30:     sch_u8_add_task(counter_vid_update, 20, 20);
  1443  05F6  3000               	movlw	0
  1444  05F7  1283               	bcf	3,5	;RP0=0, select bank0
  1445  05F8  1303               	bcf	3,6	;RP1=0, select bank0
  1446  05F9  00DA               	movwf	sch_u8_add_task@delay+3
  1447  05FA  3000               	movlw	0
  1448  05FB  00D9               	movwf	sch_u8_add_task@delay+2
  1449  05FC  3000               	movlw	0
  1450  05FD  00D8               	movwf	sch_u8_add_task@delay+1
  1451  05FE  3014               	movlw	20
  1452  05FF  00D7               	movwf	sch_u8_add_task@delay
  1453  0600  3000               	movlw	0
  1454  0601  00DE               	movwf	sch_u8_add_task@period+3
  1455  0602  3000               	movlw	0
  1456  0603  00DD               	movwf	sch_u8_add_task@period+2
  1457  0604  3000               	movlw	0
  1458  0605  00DC               	movwf	sch_u8_add_task@period+1
  1459  0606  3014               	movlw	20
  1460  0607  00DB               	movwf	sch_u8_add_task@period
  1461  0608  3005               	movlw	(low (fp__counter_vid_update-fpbase))& (0+255)
  1462  0609  120A  118A  24F0  120A  118A  	fcall	_sch_u8_add_task
  1463                           
  1464                           ;main.c: 31:     sch_u8_add_task(display_vid_blink, 0, 1000);
  1465  060E  3000               	movlw	0
  1466  060F  1283               	bcf	3,5	;RP0=0, select bank0
  1467  0610  1303               	bcf	3,6	;RP1=0, select bank0
  1468  0611  00DA               	movwf	sch_u8_add_task@delay+3
  1469  0612  3000               	movlw	0
  1470  0613  00D9               	movwf	sch_u8_add_task@delay+2
  1471  0614  3000               	movlw	0
  1472  0615  00D8               	movwf	sch_u8_add_task@delay+1
  1473  0616  3000               	movlw	0
  1474  0617  00D7               	movwf	sch_u8_add_task@delay
  1475  0618  3000               	movlw	0
  1476  0619  00DE               	movwf	sch_u8_add_task@period+3
  1477  061A  3000               	movlw	0
  1478  061B  00DD               	movwf	sch_u8_add_task@period+2
  1479  061C  3003               	movlw	3
  1480  061D  00DC               	movwf	sch_u8_add_task@period+1
  1481  061E  30E8               	movlw	232
  1482  061F  00DB               	movwf	sch_u8_add_task@period
  1483  0620  3008               	movlw	(low (fp__display_vid_blink-fpbase))& (0+255)
  1484  0621  120A  118A  24F0  120A  118A  	fcall	_sch_u8_add_task
  1485                           
  1486                           ;main.c: 32:     sch_u8_add_task(ssd_vid_update, 5, 5);
  1487  0626  3000               	movlw	0
  1488  0627  1283               	bcf	3,5	;RP0=0, select bank0
  1489  0628  1303               	bcf	3,6	;RP1=0, select bank0
  1490  0629  00DA               	movwf	sch_u8_add_task@delay+3
  1491  062A  3000               	movlw	0
  1492  062B  00D9               	movwf	sch_u8_add_task@delay+2
  1493  062C  3000               	movlw	0
  1494  062D  00D8               	movwf	sch_u8_add_task@delay+1
  1495  062E  3005               	movlw	5
  1496  062F  00D7               	movwf	sch_u8_add_task@delay
  1497  0630  3000               	movlw	0
  1498  0631  00DE               	movwf	sch_u8_add_task@period+3
  1499  0632  3000               	movlw	0
  1500  0633  00DD               	movwf	sch_u8_add_task@period+2
  1501  0634  3000               	movlw	0
  1502  0635  00DC               	movwf	sch_u8_add_task@period+1
  1503  0636  3005               	movlw	5
  1504  0637  00DB               	movwf	sch_u8_add_task@period
  1505  0638  3002               	movlw	(low (fp__ssd_vid_update-fpbase))& (0+255)
  1506  0639  120A  118A  24F0  120A  118A  	fcall	_sch_u8_add_task
  1507  063E                     l2738:	
  1508                           
  1509                           ;main.c: 35:         sch_vid_dispatch_tasks();
  1510  063E  120A  118A  245F  120A  118A  	fcall	_sch_vid_dispatch_tasks
  1511  0643  2E3E               	goto	l2738
  1512  0644  120A  118A  2812   	ljmp	start
  1513  0647                     __end_of_main:	
  1514                           
  1515                           	psect	text1
  1516  0DBB                     __ptext1:	
  1517 ;; *************** function _ssd_vid_init *****************
  1518 ;; Defined at:
  1519 ;;		line 25 in file "ssd.c"
  1520 ;; Parameters:    Size  Location     Type
  1521 ;;		None
  1522 ;; Auto vars:     Size  Location     Type
  1523 ;;		None
  1524 ;; Return value:  Size  Location     Type
  1525 ;;                  1    wreg      void 
  1526 ;; Registers used:
  1527 ;;		wreg, fsr0l, fsr0h, status,2, status,0, pclath, cstack
  1528 ;; Tracked objects:
  1529 ;;		On entry : 0/0
  1530 ;;		On exit  : 0/0
  1531 ;;		Unchanged: 0/0
  1532 ;; Data sizes:     COMMON   BANK0   BANK1   BANK3   BANK2
  1533 ;;      Params:         0       0       0       0       0
  1534 ;;      Locals:         0       0       0       0       0
  1535 ;;      Temps:          0       1       0       0       0
  1536 ;;      Totals:         0       1       0       0       0
  1537 ;;Total ram usage:        1 bytes
  1538 ;; Hardware stack levels used:    1
  1539 ;; Hardware stack levels required when called:    4
  1540 ;; This function calls:
  1541 ;;		_dio_vid_set_pin_direction
  1542 ;;		_dio_vid_set_port_direction
  1543 ;; This function is called by:
  1544 ;;		_main
  1545 ;;		_display_init
  1546 ;; This function uses a non-reentrant model
  1547 ;;
  1548                           
  1549                           
  1550                           ;psect for function _ssd_vid_init
  1551  0DBB                     _ssd_vid_init:	
  1552  0DBB                     l2610:	
  1553                           ;incstack = 0
  1554                           ; Regs used in _ssd_vid_init: [wreg-fsr0h+status,2+status,0+pclath+cstack]
  1555                           
  1556                           
  1557                           ;ssd.c: 26:     dio_vid_set_port_direction(D, 0);
  1558  0DBB  1283               	bcf	3,5	;RP0=0, select bank0
  1559  0DBC  1303               	bcf	3,6	;RP1=0, select bank0
  1560  0DBD  01D3               	clrf	dio_vid_set_port_direction@direction
  1561  0DBE  3003               	movlw	3
  1562  0DBF  120A  158A  26BF  120A  158A  	fcall	_dio_vid_set_port_direction
  1563                           
  1564                           ;ssd.c: 27:     dio_vid_set_pin_direction(A, 2, 0);
  1565  0DC4  3002               	movlw	2
  1566  0DC5  1283               	bcf	3,5	;RP0=0, select bank0
  1567  0DC6  1303               	bcf	3,6	;RP1=0, select bank0
  1568  0DC7  00D8               	movwf	??_ssd_vid_init
  1569  0DC8  0858               	movf	??_ssd_vid_init,w
  1570  0DC9  00D3               	movwf	dio_vid_set_pin_direction@index
  1571  0DCA  01D4               	clrf	dio_vid_set_pin_direction@direction
  1572  0DCB  3000               	movlw	0
  1573  0DCC  120A  118A  2050  120A  158A  	fcall	_dio_vid_set_pin_direction
  1574                           
  1575                           ;ssd.c: 28:     dio_vid_set_pin_direction(A, 3, 0);
  1576  0DD1  3003               	movlw	3
  1577  0DD2  1283               	bcf	3,5	;RP0=0, select bank0
  1578  0DD3  1303               	bcf	3,6	;RP1=0, select bank0
  1579  0DD4  00D8               	movwf	??_ssd_vid_init
  1580  0DD5  0858               	movf	??_ssd_vid_init,w
  1581  0DD6  00D3               	movwf	dio_vid_set_pin_direction@index
  1582  0DD7  01D4               	clrf	dio_vid_set_pin_direction@direction
  1583  0DD8  3000               	movlw	0
  1584  0DD9  120A  118A  2050  120A  158A  	fcall	_dio_vid_set_pin_direction
  1585  0DDE                     l189:	
  1586  0DDE  0008               	return
  1587  0DDF                     __end_of_ssd_vid_init:	
  1588                           
  1589                           	psect	text2
  1590  0EBF                     __ptext2:	
  1591 ;; *************** function _dio_vid_set_port_direction *****************
  1592 ;; Defined at:
  1593 ;;		line 12 in file "dio.c"
  1594 ;; Parameters:    Size  Location     Type
  1595 ;;  portNumber      1    wreg     unsigned char 
  1596 ;;  direction       1    6[BANK0 ] unsigned char 
  1597 ;; Auto vars:     Size  Location     Type
  1598 ;;  portNumber      1    9[BANK0 ] unsigned char 
  1599 ;; Return value:  Size  Location     Type
  1600 ;;                  1    wreg      void 
  1601 ;; Registers used:
  1602 ;;		wreg, fsr0l, fsr0h, status,2, status,0
  1603 ;; Tracked objects:
  1604 ;;		On entry : 0/0
  1605 ;;		On exit  : 0/0
  1606 ;;		Unchanged: 0/0
  1607 ;; Data sizes:     COMMON   BANK0   BANK1   BANK3   BANK2
  1608 ;;      Params:         0       1       0       0       0
  1609 ;;      Locals:         0       1       0       0       0
  1610 ;;      Temps:          0       2       0       0       0
  1611 ;;      Totals:         0       4       0       0       0
  1612 ;;Total ram usage:        4 bytes
  1613 ;; Hardware stack levels used:    1
  1614 ;; Hardware stack levels required when called:    3
  1615 ;; This function calls:
  1616 ;;		Nothing
  1617 ;; This function is called by:
  1618 ;;		_ssd_vid_init
  1619 ;; This function uses a non-reentrant model
  1620 ;;
  1621                           
  1622                           
  1623                           ;psect for function _dio_vid_set_port_direction
  1624  0EBF                     _dio_vid_set_port_direction:	
  1625                           
  1626                           ;incstack = 0
  1627                           ; Regs used in _dio_vid_set_port_direction: [wreg-fsr0h+status,2+status,0]
  1628                           ;dio_vid_set_port_direction@portNumber stored from wreg
  1629  0EBF  1283               	bcf	3,5	;RP0=0, select bank0
  1630  0EC0  1303               	bcf	3,6	;RP1=0, select bank0
  1631  0EC1  00D6               	movwf	dio_vid_set_port_direction@portNumber
  1632  0EC2                     l2376:	
  1633                           
  1634                           ;dio.c: 13:  switch (portNumber) {
  1635  0EC2  2EDC               	goto	l2390
  1636  0EC3                     l2378:	
  1637                           
  1638                           ;dio.c: 15:   TRISA = direction;
  1639  0EC3  0853               	movf	dio_vid_set_port_direction@direction,w
  1640  0EC4  1683               	bsf	3,5	;RP0=1, select bank1
  1641  0EC5  1303               	bcf	3,6	;RP1=0, select bank1
  1642  0EC6  0085               	movwf	5	;volatile
  1643                           
  1644                           ;dio.c: 16:   break;
  1645  0EC7  2EF5               	goto	l56
  1646  0EC8                     l2380:	
  1647                           
  1648                           ;dio.c: 18:   TRISB = direction;
  1649  0EC8  0853               	movf	dio_vid_set_port_direction@direction,w
  1650  0EC9  1683               	bsf	3,5	;RP0=1, select bank1
  1651  0ECA  1303               	bcf	3,6	;RP1=0, select bank1
  1652  0ECB  0086               	movwf	6	;volatile
  1653                           
  1654                           ;dio.c: 19:   break;
  1655  0ECC  2EF5               	goto	l56
  1656  0ECD                     l2382:	
  1657                           
  1658                           ;dio.c: 21:   TRISC = direction;
  1659  0ECD  0853               	movf	dio_vid_set_port_direction@direction,w
  1660  0ECE  1683               	bsf	3,5	;RP0=1, select bank1
  1661  0ECF  1303               	bcf	3,6	;RP1=0, select bank1
  1662  0ED0  0087               	movwf	7	;volatile
  1663                           
  1664                           ;dio.c: 22:   break;
  1665  0ED1  2EF5               	goto	l56
  1666  0ED2                     l2384:	
  1667                           
  1668                           ;dio.c: 24:   TRISD = direction;
  1669  0ED2  0853               	movf	dio_vid_set_port_direction@direction,w
  1670  0ED3  1683               	bsf	3,5	;RP0=1, select bank1
  1671  0ED4  1303               	bcf	3,6	;RP1=0, select bank1
  1672  0ED5  0088               	movwf	8	;volatile
  1673                           
  1674                           ;dio.c: 25:   break;
  1675  0ED6  2EF5               	goto	l56
  1676  0ED7                     l2386:	
  1677                           
  1678                           ;dio.c: 27:   TRISE = direction;
  1679  0ED7  0853               	movf	dio_vid_set_port_direction@direction,w
  1680  0ED8  1683               	bsf	3,5	;RP0=1, select bank1
  1681  0ED9  1303               	bcf	3,6	;RP1=0, select bank1
  1682  0EDA  0089               	movwf	9	;volatile
  1683                           
  1684                           ;dio.c: 28:   break;
  1685  0EDB  2EF5               	goto	l56
  1686  0EDC                     l2390:	
  1687  0EDC  0856               	movf	dio_vid_set_port_direction@portNumber,w
  1688  0EDD  00D4               	movwf	??_dio_vid_set_port_direction
  1689  0EDE  01D5               	clrf	??_dio_vid_set_port_direction+1
  1690                           
  1691                           ; Switch on 2 bytes has been partitioned into a top level switch of size 1, and 1 sub-sw
      +                          itches
  1692                           ; Switch size 1, requested type "simple"
  1693                           ; Number of cases is 1, Range of values is 0 to 0
  1694                           ; switch strategies available:
  1695                           ; Name         Instructions Cycles
  1696                           ; simple_byte            4     3 (average)
  1697                           ; direct_byte           11     8 (fixed)
  1698                           ; jumptable            260     6 (fixed)
  1699                           ;	Chosen strategy is simple_byte
  1700  0EDF  0855               	movf	??_dio_vid_set_port_direction+1,w
  1701  0EE0  3A00               	xorlw	0	; case 0
  1702  0EE1  1903               	skipnz
  1703  0EE2  2EE4               	goto	l3044
  1704  0EE3  2EF5               	goto	l56
  1705  0EE4                     l3044:	
  1706                           
  1707                           ; Switch size 1, requested type "simple"
  1708                           ; Number of cases is 5, Range of values is 0 to 4
  1709                           ; switch strategies available:
  1710                           ; Name         Instructions Cycles
  1711                           ; simple_byte           16     9 (average)
  1712                           ; direct_byte           23     8 (fixed)
  1713                           ; jumptable            260     6 (fixed)
  1714                           ;	Chosen strategy is simple_byte
  1715  0EE4  0854               	movf	??_dio_vid_set_port_direction,w
  1716  0EE5  3A00               	xorlw	0	; case 0
  1717  0EE6  1903               	skipnz
  1718  0EE7  2EC3               	goto	l2378
  1719  0EE8  3A01               	xorlw	1	; case 1
  1720  0EE9  1903               	skipnz
  1721  0EEA  2EC8               	goto	l2380
  1722  0EEB  3A03               	xorlw	3	; case 2
  1723  0EEC  1903               	skipnz
  1724  0EED  2ECD               	goto	l2382
  1725  0EEE  3A01               	xorlw	1	; case 3
  1726  0EEF  1903               	skipnz
  1727  0EF0  2ED2               	goto	l2384
  1728  0EF1  3A07               	xorlw	7	; case 4
  1729  0EF2  1903               	skipnz
  1730  0EF3  2ED7               	goto	l2386
  1731  0EF4  2EF5               	goto	l56
  1732  0EF5                     l56:	
  1733  0EF5  0008               	return
  1734  0EF6                     __end_of_dio_vid_set_port_direction:	
  1735                           
  1736                           	psect	text3
  1737  0E08                     __ptext3:	
  1738 ;; *************** function _sch_vid_init *****************
  1739 ;; Defined at:
  1740 ;;		line 19 in file "scheduler.c"
  1741 ;; Parameters:    Size  Location     Type
  1742 ;;		None
  1743 ;; Auto vars:     Size  Location     Type
  1744 ;;  i               1   13[BANK0 ] unsigned char 
  1745 ;; Return value:  Size  Location     Type
  1746 ;;                  1    wreg      void 
  1747 ;; Registers used:
  1748 ;;		wreg, fsr0l, fsr0h, status,2, status,0, pclath, cstack
  1749 ;; Tracked objects:
  1750 ;;		On entry : 0/0
  1751 ;;		On exit  : 0/0
  1752 ;;		Unchanged: 0/0
  1753 ;; Data sizes:     COMMON   BANK0   BANK1   BANK3   BANK2
  1754 ;;      Params:         0       0       0       0       0
  1755 ;;      Locals:         0       1       0       0       0
  1756 ;;      Temps:          0       1       0       0       0
  1757 ;;      Totals:         0       2       0       0       0
  1758 ;;Total ram usage:        2 bytes
  1759 ;; Hardware stack levels used:    1
  1760 ;; Hardware stack levels required when called:    5
  1761 ;; This function calls:
  1762 ;;		_sch_vid_delete_task
  1763 ;;		_timer_vid_init_0
  1764 ;;		_timer_vid_set_isr_0
  1765 ;; This function is called by:
  1766 ;;		_main
  1767 ;; This function uses a non-reentrant model
  1768 ;;
  1769                           
  1770                           
  1771                           ;psect for function _sch_vid_init
  1772  0E08                     _sch_vid_init:	
  1773  0E08                     l2646:	
  1774                           ;incstack = 0
  1775                           ; Regs used in _sch_vid_init: [wreg-fsr0h+status,2+status,0+pclath+cstack]
  1776                           
  1777                           
  1778                           ;scheduler.c: 20:     u8 i;;scheduler.c: 21:     for (i = 0; i < 3; i++) {
  1779  0E08  1283               	bcf	3,5	;RP0=0, select bank0
  1780  0E09  1303               	bcf	3,6	;RP1=0, select bank0
  1781  0E0A  01DA               	clrf	sch_vid_init@i
  1782  0E0B                     l2652:	
  1783                           
  1784                           ;scheduler.c: 22:         sch_vid_delete_task(i);
  1785  0E0B  085A               	movf	sch_vid_init@i,w
  1786  0E0C  120A  118A  257C  120A  158A  	fcall	_sch_vid_delete_task
  1787  0E11                     l2654:	
  1788                           
  1789                           ;scheduler.c: 23:     }
  1790  0E11  3001               	movlw	1
  1791  0E12  1283               	bcf	3,5	;RP0=0, select bank0
  1792  0E13  1303               	bcf	3,6	;RP1=0, select bank0
  1793  0E14  00D9               	movwf	??_sch_vid_init
  1794  0E15  0859               	movf	??_sch_vid_init,w
  1795  0E16  07DA               	addwf	sch_vid_init@i,f
  1796  0E17                     l2656:	
  1797  0E17  3003               	movlw	3
  1798  0E18  025A               	subwf	sch_vid_init@i,w
  1799  0E19  1C03               	skipc
  1800  0E1A  2E1C               	goto	u2221
  1801  0E1B  2E1D               	goto	u2220
  1802  0E1C                     u2221:	
  1803  0E1C  2E0B               	goto	l2652
  1804  0E1D                     u2220:	
  1805  0E1D                     l2658:	
  1806                           
  1807                           ;scheduler.c: 24:     timer_vid_set_isr_0(sch_update);
  1808  0E1D  3001               	movlw	(low (fp__sch_update-i1fpbase))& (0+255)
  1809  0E1E  120A  158A  24D1  120A  158A  	fcall	_timer_vid_set_isr_0
  1810  0E23                     l2660:	
  1811                           
  1812                           ;scheduler.c: 25:     timer_vid_init_0(8, 1);
  1813  0E23  3008               	movlw	8
  1814  0E24  1283               	bcf	3,5	;RP0=0, select bank0
  1815  0E25  1303               	bcf	3,6	;RP1=0, select bank0
  1816  0E26  00D3               	movwf	timer_vid_init_0@prescaler
  1817  0E27  3000               	movlw	0
  1818  0E28  00D4               	movwf	timer_vid_init_0@prescaler+1
  1819  0E29  01D5               	clrf	timer_vid_init_0@interruptEnable
  1820  0E2A  0AD5               	incf	timer_vid_init_0@interruptEnable,f
  1821  0E2B  120A  118A  2647  120A  158A  	fcall	_timer_vid_init_0
  1822  0E30                     l238:	
  1823  0E30  0008               	return
  1824  0E31                     __end_of_sch_vid_init:	
  1825                           
  1826                           	psect	text4
  1827  0CD1                     __ptext4:	
  1828 ;; *************** function _timer_vid_set_isr_0 *****************
  1829 ;; Defined at:
  1830 ;;		line 36 in file "timer.c"
  1831 ;; Parameters:    Size  Location     Type
  1832 ;;  callback_fun    1    wreg     PTR FTN()void 
  1833 ;;		 -> sch_update(1), 
  1834 ;; Auto vars:     Size  Location     Type
  1835 ;;  callback_fun    1    7[BANK0 ] PTR FTN()void 
  1836 ;;		 -> sch_update(1), 
  1837 ;; Return value:  Size  Location     Type
  1838 ;;                  1    wreg      void 
  1839 ;; Registers used:
  1840 ;;		wreg
  1841 ;; Tracked objects:
  1842 ;;		On entry : 0/0
  1843 ;;		On exit  : 0/0
  1844 ;;		Unchanged: 0/0
  1845 ;; Data sizes:     COMMON   BANK0   BANK1   BANK3   BANK2
  1846 ;;      Params:         0       0       0       0       0
  1847 ;;      Locals:         0       1       0       0       0
  1848 ;;      Temps:          0       1       0       0       0
  1849 ;;      Totals:         0       2       0       0       0
  1850 ;;Total ram usage:        2 bytes
  1851 ;; Hardware stack levels used:    1
  1852 ;; Hardware stack levels required when called:    3
  1853 ;; This function calls:
  1854 ;;		Nothing
  1855 ;; This function is called by:
  1856 ;;		_sch_vid_init
  1857 ;; This function uses a non-reentrant model
  1858 ;;
  1859                           
  1860                           
  1861                           ;psect for function _timer_vid_set_isr_0
  1862  0CD1                     _timer_vid_set_isr_0:	
  1863                           
  1864                           ;incstack = 0
  1865                           ; Regs used in _timer_vid_set_isr_0: [wreg]
  1866                           ;timer_vid_set_isr_0@callback_function stored from wreg
  1867  0CD1  1283               	bcf	3,5	;RP0=0, select bank0
  1868  0CD2  1303               	bcf	3,6	;RP1=0, select bank0
  1869  0CD3  00D4               	movwf	timer_vid_set_isr_0@callback_function
  1870  0CD4                     l2468:	
  1871                           
  1872                           ;timer.c: 37:     timer0_isr = callback_function;
  1873  0CD4  0854               	movf	timer_vid_set_isr_0@callback_function,w
  1874  0CD5  00D3               	movwf	??_timer_vid_set_isr_0
  1875  0CD6  0853               	movf	??_timer_vid_set_isr_0,w
  1876  0CD7  00FD               	movwf	_timer0_isr
  1877  0CD8                     l308:	
  1878  0CD8  0008               	return
  1879  0CD9                     __end_of_timer_vid_set_isr_0:	
  1880                           
  1881                           	psect	text5
  1882  0647                     __ptext5:	
  1883 ;; *************** function _timer_vid_init_0 *****************
  1884 ;; Defined at:
  1885 ;;		line 48 in file "timer.c"
  1886 ;; Parameters:    Size  Location     Type
  1887 ;;  prescaler       2    6[BANK0 ] unsigned short 
  1888 ;;  interruptEna    1    8[BANK0 ] unsigned char 
  1889 ;; Auto vars:     Size  Location     Type
  1890 ;;		None
  1891 ;; Return value:  Size  Location     Type
  1892 ;;                  1    wreg      void 
  1893 ;; Registers used:
  1894 ;;		wreg, fsr0l, fsr0h, status,2, status,0
  1895 ;; Tracked objects:
  1896 ;;		On entry : 0/0
  1897 ;;		On exit  : 0/0
  1898 ;;		Unchanged: 0/0
  1899 ;; Data sizes:     COMMON   BANK0   BANK1   BANK3   BANK2
  1900 ;;      Params:         0       3       0       0       0
  1901 ;;      Locals:         0       0       0       0       0
  1902 ;;      Temps:          0       0       0       0       0
  1903 ;;      Totals:         0       3       0       0       0
  1904 ;;Total ram usage:        3 bytes
  1905 ;; Hardware stack levels used:    1
  1906 ;; Hardware stack levels required when called:    3
  1907 ;; This function calls:
  1908 ;;		Nothing
  1909 ;; This function is called by:
  1910 ;;		_sch_vid_init
  1911 ;; This function uses a non-reentrant model
  1912 ;;
  1913                           
  1914                           
  1915                           ;psect for function _timer_vid_init_0
  1916  0647                     _timer_vid_init_0:	
  1917  0647                     l2470:	
  1918                           ;incstack = 0
  1919                           ; Regs used in _timer_vid_init_0: [wreg-fsr0h+status,2+status,0]
  1920                           
  1921                           
  1922                           ;timer.c: 51:     T0CS = 0;
  1923  0647  1683               	bsf	3,5	;RP0=1, select bank1
  1924  0648  1303               	bcf	3,6	;RP1=0, select bank1
  1925  0649  1281               	bcf	1,5	;volatile
  1926                           
  1927                           ;timer.c: 54:     PSA = 0;
  1928  064A  1181               	bcf	1,3	;volatile
  1929                           
  1930                           ;timer.c: 57:     switch (prescaler) {
  1931  064B  2E7C               	goto	l2474
  1932  064C                     l318:	
  1933                           ;timer.c: 58:         case 2:
  1934                           
  1935                           
  1936                           ;timer.c: 59:             PS0 = 0;
  1937  064C  1683               	bsf	3,5	;RP0=1, select bank1
  1938  064D  1303               	bcf	3,6	;RP1=0, select bank1
  1939  064E  1001               	bcf	1,0	;volatile
  1940                           
  1941                           ;timer.c: 60:             PS1 = 0;
  1942  064F  1081               	bcf	1,1	;volatile
  1943                           
  1944                           ;timer.c: 61:             PS2 = 0;
  1945  0650  1101               	bcf	1,2	;volatile
  1946                           
  1947                           ;timer.c: 62:             break;
  1948  0651  2EA2               	goto	l2476
  1949  0652                     l320:	
  1950                           ;timer.c: 63:         case 4:
  1951                           
  1952                           
  1953                           ;timer.c: 64:             PS0 = 1;
  1954  0652  1683               	bsf	3,5	;RP0=1, select bank1
  1955  0653  1303               	bcf	3,6	;RP1=0, select bank1
  1956  0654  1401               	bsf	1,0	;volatile
  1957                           
  1958                           ;timer.c: 65:             PS1 = 0;
  1959  0655  1081               	bcf	1,1	;volatile
  1960                           
  1961                           ;timer.c: 66:             PS2 = 0;
  1962  0656  1101               	bcf	1,2	;volatile
  1963                           
  1964                           ;timer.c: 67:             break;
  1965  0657  2EA2               	goto	l2476
  1966  0658                     l321:	
  1967                           ;timer.c: 68:         case 8:
  1968                           
  1969                           
  1970                           ;timer.c: 69:             PS0 = 0;
  1971  0658  1683               	bsf	3,5	;RP0=1, select bank1
  1972  0659  1303               	bcf	3,6	;RP1=0, select bank1
  1973  065A  1001               	bcf	1,0	;volatile
  1974                           
  1975                           ;timer.c: 70:             PS1 = 1;
  1976  065B  1481               	bsf	1,1	;volatile
  1977                           
  1978                           ;timer.c: 71:             PS2 = 0;
  1979  065C  1101               	bcf	1,2	;volatile
  1980                           
  1981                           ;timer.c: 72:             break;
  1982  065D  2EA2               	goto	l2476
  1983  065E                     l322:	
  1984                           ;timer.c: 73:         case 16:
  1985                           
  1986                           
  1987                           ;timer.c: 74:             PS0 = 1;
  1988  065E  1683               	bsf	3,5	;RP0=1, select bank1
  1989  065F  1303               	bcf	3,6	;RP1=0, select bank1
  1990  0660  1401               	bsf	1,0	;volatile
  1991                           
  1992                           ;timer.c: 75:             PS1 = 1;
  1993  0661  1481               	bsf	1,1	;volatile
  1994                           
  1995                           ;timer.c: 76:             PS2 = 0;
  1996  0662  1101               	bcf	1,2	;volatile
  1997                           
  1998                           ;timer.c: 77:             break;
  1999  0663  2EA2               	goto	l2476
  2000  0664                     l323:	
  2001                           ;timer.c: 78:         case 32:
  2002                           
  2003                           
  2004                           ;timer.c: 79:             PS0 = 0;
  2005  0664  1683               	bsf	3,5	;RP0=1, select bank1
  2006  0665  1303               	bcf	3,6	;RP1=0, select bank1
  2007  0666  1001               	bcf	1,0	;volatile
  2008                           
  2009                           ;timer.c: 80:             PS1 = 0;
  2010  0667  1081               	bcf	1,1	;volatile
  2011                           
  2012                           ;timer.c: 81:             PS2 = 1;
  2013  0668  1501               	bsf	1,2	;volatile
  2014                           
  2015                           ;timer.c: 82:             break;
  2016  0669  2EA2               	goto	l2476
  2017  066A                     l324:	
  2018                           ;timer.c: 83:         case 64:
  2019                           
  2020                           
  2021                           ;timer.c: 84:             PS0 = 1;
  2022  066A  1683               	bsf	3,5	;RP0=1, select bank1
  2023  066B  1303               	bcf	3,6	;RP1=0, select bank1
  2024  066C  1401               	bsf	1,0	;volatile
  2025                           
  2026                           ;timer.c: 85:             PS1 = 0;
  2027  066D  1081               	bcf	1,1	;volatile
  2028                           
  2029                           ;timer.c: 86:             PS2 = 1;
  2030  066E  1501               	bsf	1,2	;volatile
  2031                           
  2032                           ;timer.c: 87:             break;
  2033  066F  2EA2               	goto	l2476
  2034  0670                     l325:	
  2035                           ;timer.c: 88:         case 128:
  2036                           
  2037                           
  2038                           ;timer.c: 89:             PS0 = 0;
  2039  0670  1683               	bsf	3,5	;RP0=1, select bank1
  2040  0671  1303               	bcf	3,6	;RP1=0, select bank1
  2041  0672  1001               	bcf	1,0	;volatile
  2042                           
  2043                           ;timer.c: 90:             PS1 = 1;
  2044  0673  1481               	bsf	1,1	;volatile
  2045                           
  2046                           ;timer.c: 91:             PS2 = 1;
  2047  0674  1501               	bsf	1,2	;volatile
  2048                           
  2049                           ;timer.c: 92:             break;
  2050  0675  2EA2               	goto	l2476
  2051  0676                     l326:	
  2052                           ;timer.c: 93:         case 256:
  2053                           
  2054                           
  2055                           ;timer.c: 94:             PS0 = 1;
  2056  0676  1683               	bsf	3,5	;RP0=1, select bank1
  2057  0677  1303               	bcf	3,6	;RP1=0, select bank1
  2058  0678  1401               	bsf	1,0	;volatile
  2059                           
  2060                           ;timer.c: 95:             PS1 = 1;
  2061  0679  1481               	bsf	1,1	;volatile
  2062                           
  2063                           ;timer.c: 96:             PS2 = 1;
  2064  067A  1501               	bsf	1,2	;volatile
  2065                           
  2066                           ;timer.c: 97:             break;
  2067  067B  2EA2               	goto	l2476
  2068  067C                     l2474:	
  2069                           
  2070                           ; Switch on 2 bytes has been partitioned into a top level switch of size 1, and 2 sub-sw
      +                          itches
  2071                           ; Switch size 1, requested type "simple"
  2072                           ; Number of cases is 2, Range of values is 0 to 1
  2073                           ; switch strategies available:
  2074                           ; Name         Instructions Cycles
  2075                           ; simple_byte            7     4 (average)
  2076                           ; direct_byte           14     8 (fixed)
  2077                           ; jumptable            260     6 (fixed)
  2078                           ;	Chosen strategy is simple_byte
  2079  067C  1283               	bcf	3,5	;RP0=0, select bank0
  2080  067D  1303               	bcf	3,6	;RP1=0, select bank0
  2081  067E  0854               	movf	timer_vid_init_0@prescaler+1,w
  2082  067F  3A00               	xorlw	0	; case 0
  2083  0680  1903               	skipnz
  2084  0681  2E86               	goto	l3046
  2085  0682  3A01               	xorlw	1	; case 1
  2086  0683  1903               	skipnz
  2087  0684  2E9D               	goto	l3048
  2088  0685  2EA2               	goto	l2476
  2089  0686                     l3046:	
  2090                           
  2091                           ; Switch size 1, requested type "simple"
  2092                           ; Number of cases is 7, Range of values is 2 to 128
  2093                           ; switch strategies available:
  2094                           ; Name         Instructions Cycles
  2095                           ; simple_byte           22    12 (average)
  2096                           ; jumptable            263     9 (fixed)
  2097                           ;	Chosen strategy is simple_byte
  2098  0686  0853               	movf	timer_vid_init_0@prescaler,w
  2099  0687  3A02               	xorlw	2	; case 2
  2100  0688  1903               	skipnz
  2101  0689  2E4C               	goto	l318
  2102  068A  3A06               	xorlw	6	; case 4
  2103  068B  1903               	skipnz
  2104  068C  2E52               	goto	l320
  2105  068D  3A0C               	xorlw	12	; case 8
  2106  068E  1903               	skipnz
  2107  068F  2E58               	goto	l321
  2108  0690  3A18               	xorlw	24	; case 16
  2109  0691  1903               	skipnz
  2110  0692  2E5E               	goto	l322
  2111  0693  3A30               	xorlw	48	; case 32
  2112  0694  1903               	skipnz
  2113  0695  2E64               	goto	l323
  2114  0696  3A60               	xorlw	96	; case 64
  2115  0697  1903               	skipnz
  2116  0698  2E6A               	goto	l324
  2117  0699  3AC0               	xorlw	192	; case 128
  2118  069A  1903               	skipnz
  2119  069B  2E70               	goto	l325
  2120  069C  2EA2               	goto	l2476
  2121  069D                     l3048:	
  2122                           
  2123                           ; Switch size 1, requested type "simple"
  2124                           ; Number of cases is 1, Range of values is 0 to 0
  2125                           ; switch strategies available:
  2126                           ; Name         Instructions Cycles
  2127                           ; simple_byte            4     3 (average)
  2128                           ; direct_byte           11     8 (fixed)
  2129                           ; jumptable            260     6 (fixed)
  2130                           ;	Chosen strategy is simple_byte
  2131  069D  0853               	movf	timer_vid_init_0@prescaler,w
  2132  069E  3A00               	xorlw	0	; case 0
  2133  069F  1903               	skipnz
  2134  06A0  2E76               	goto	l326
  2135  06A1  2EA2               	goto	l2476
  2136  06A2                     l2476:	
  2137                           
  2138                           ;timer.c: 100:     if (interruptEnable) {
  2139  06A2  1283               	bcf	3,5	;RP0=0, select bank0
  2140  06A3  0855               	movf	timer_vid_init_0@interruptEnable,w
  2141  06A4  1903               	btfsc	3,2
  2142  06A5  2EA7               	goto	u1941
  2143  06A6  2EA8               	goto	u1940
  2144  06A7                     u1941:	
  2145  06A7  2EAB               	goto	l328
  2146  06A8                     u1940:	
  2147  06A8                     l2478:	
  2148                           
  2149                           ;timer.c: 102:         PEIE = 1;
  2150  06A8  170B               	bsf	11,6	;volatile
  2151                           
  2152                           ;timer.c: 105:         GIE = 1;
  2153  06A9  178B               	bsf	11,7	;volatile
  2154                           
  2155                           ;timer.c: 108:         TMR0IE = 1;
  2156  06AA  168B               	bsf	11,5	;volatile
  2157  06AB                     l328:	
  2158  06AB  0008               	return
  2159  06AC                     __end_of_timer_vid_init_0:	
  2160                           
  2161                           	psect	text6
  2162  045F                     __ptext6:	
  2163 ;; *************** function _sch_vid_dispatch_tasks *****************
  2164 ;; Defined at:
  2165 ;;		line 73 in file "scheduler.c"
  2166 ;; Parameters:    Size  Location     Type
  2167 ;;		None
  2168 ;; Auto vars:     Size  Location     Type
  2169 ;;  index           1   22[BANK0 ] unsigned char 
  2170 ;; Return value:  Size  Location     Type
  2171 ;;                  1    wreg      void 
  2172 ;; Registers used:
  2173 ;;		wreg, fsr0l, fsr0h, status,2, status,0, btemp+1, pclath, cstack
  2174 ;; Tracked objects:
  2175 ;;		On entry : 0/0
  2176 ;;		On exit  : 0/0
  2177 ;;		Unchanged: 0/0
  2178 ;; Data sizes:     COMMON   BANK0   BANK1   BANK3   BANK2
  2179 ;;      Params:         0       0       0       0       0
  2180 ;;      Locals:         0       1       0       0       0
  2181 ;;      Temps:          0       5       0       0       0
  2182 ;;      Totals:         0       6       0       0       0
  2183 ;;Total ram usage:        6 bytes
  2184 ;; Hardware stack levels used:    1
  2185 ;; Hardware stack levels required when called:    7
  2186 ;; This function calls:
  2187 ;;		Absolute function
  2188 ;;		___bmul
  2189 ;;		_counter_vid_update
  2190 ;;		_display_vid_blink
  2191 ;;		_sch_vid_delete_task
  2192 ;;		_ssd_vid_update
  2193 ;; This function is called by:
  2194 ;;		_main
  2195 ;; This function uses a non-reentrant model
  2196 ;;
  2197                           
  2198                           
  2199                           ;psect for function _sch_vid_dispatch_tasks
  2200  045F                     _sch_vid_dispatch_tasks:	
  2201  045F                     l2678:	
  2202                           ;incstack = 0
  2203                           ; Regs used in _sch_vid_dispatch_tasks: [wreg-fsr0h+status,2+status,0+btemp+1+pclath+cst
      +                          ack]
  2204                           
  2205                           
  2206                           ;scheduler.c: 74:     u8 index;;scheduler.c: 76:     for (index = 0; index < 3; index++)
      +                           {
  2207  045F  1283               	bcf	3,5	;RP0=0, select bank0
  2208  0460  1303               	bcf	3,6	;RP1=0, select bank0
  2209  0461  01E3               	clrf	sch_vid_dispatch_tasks@index
  2210  0462                     l2684:	
  2211                           
  2212                           ;scheduler.c: 77:         if (sch_tasks[index].runMe > 0) {
  2213  0462  300D               	movlw	13
  2214  0463  00DE               	movwf	??_sch_vid_dispatch_tasks
  2215  0464  085E               	movf	??_sch_vid_dispatch_tasks,w
  2216  0465  00D3               	movwf	___bmul@multiplicand
  2217  0466  0863               	movf	sch_vid_dispatch_tasks@index,w
  2218  0467  120A  158A  2571  120A  118A  	fcall	___bmul
  2219  046C  3E29               	addlw	(low ((_sch_tasks| 0+9)))& (0+255)
  2220  046D  0084               	movwf	4
  2221  046E  1383               	bcf	3,7	;select IRP bank0
  2222  046F  0800               	movf	0,w
  2223  0470  1283               	bcf	3,5	;RP0=0, select bank0
  2224  0471  1303               	bcf	3,6	;RP1=0, select bank0
  2225  0472  00DF               	movwf	??_sch_vid_dispatch_tasks+1
  2226  0473  0A84               	incf	4,f
  2227  0474  0800               	movf	0,w
  2228  0475  00E0               	movwf	??_sch_vid_dispatch_tasks+2
  2229  0476  0A84               	incf	4,f
  2230  0477  0800               	movf	0,w
  2231  0478  00E1               	movwf	??_sch_vid_dispatch_tasks+3
  2232  0479  0A84               	incf	4,f
  2233  047A  0800               	movf	0,w
  2234  047B  00E2               	movwf	??_sch_vid_dispatch_tasks+4
  2235  047C  0862               	movf	??_sch_vid_dispatch_tasks+4,w
  2236  047D  0461               	iorwf	??_sch_vid_dispatch_tasks+3,w
  2237  047E  0460               	iorwf	??_sch_vid_dispatch_tasks+2,w
  2238  047F  045F               	iorwf	??_sch_vid_dispatch_tasks+1,w
  2239  0480  1903               	skipnz
  2240  0481  2C83               	goto	u2261
  2241  0482  2C84               	goto	u2260
  2242  0483                     u2261:	
  2243  0483  2CE3               	goto	l2694
  2244  0484                     u2260:	
  2245  0484                     l2686:	
  2246                           
  2247                           ;scheduler.c: 78:             (*sch_tasks[index].taskFunction)();
  2248  0484  300D               	movlw	13
  2249  0485  00DE               	movwf	??_sch_vid_dispatch_tasks
  2250  0486  085E               	movf	??_sch_vid_dispatch_tasks,w
  2251  0487  00D3               	movwf	___bmul@multiplicand
  2252  0488  0863               	movf	sch_vid_dispatch_tasks@index,w
  2253  0489  120A  158A  2571  120A  118A  	fcall	___bmul
  2254  048E  3E20               	addlw	(low (_sch_tasks| 0))& (0+255)
  2255  048F  0084               	movwf	4
  2256  0490  1383               	bcf	3,7	;select IRP bank0
  2257  0491  0800               	movf	0,w
  2258  0492  120A  118A  2037  120A  118A  	fcall	fptable
  2259  0497                     l2688:	
  2260                           
  2261                           ;scheduler.c: 79:             sch_tasks[index].runMe -= 1;
  2262  0497  300D               	movlw	13
  2263  0498  1283               	bcf	3,5	;RP0=0, select bank0
  2264  0499  1303               	bcf	3,6	;RP1=0, select bank0
  2265  049A  00DE               	movwf	??_sch_vid_dispatch_tasks
  2266  049B  085E               	movf	??_sch_vid_dispatch_tasks,w
  2267  049C  00D3               	movwf	___bmul@multiplicand
  2268  049D  0863               	movf	sch_vid_dispatch_tasks@index,w
  2269  049E  120A  158A  2571  120A  118A  	fcall	___bmul
  2270  04A3  3E29               	addlw	(low ((_sch_tasks| 0+9)))& (0+255)
  2271  04A4  0084               	movwf	4
  2272  04A5  3001               	movlw	1
  2273  04A6  1383               	bcf	3,7	;select IRP bank0
  2274  04A7  0280               	subwf	0,f
  2275  04A8  0A84               	incf	4,f
  2276  04A9  3000               	movlw	0
  2277  04AA  1C03               	skipc
  2278  04AB  3001               	movlw	1
  2279  04AC  0280               	subwf	0,f
  2280  04AD  0A84               	incf	4,f
  2281  04AE  3000               	movlw	0
  2282  04AF  1C03               	skipc
  2283  04B0  3001               	movlw	1
  2284  04B1  0280               	subwf	0,f
  2285  04B2  0A84               	incf	4,f
  2286  04B3  3000               	movlw	0
  2287  04B4  1C03               	skipc
  2288  04B5  3001               	movlw	1
  2289  04B6  0280               	subwf	0,f
  2290  04B7  3003               	movlw	3
  2291  04B8  0284               	subwf	4,f
  2292  04B9                     l2690:	
  2293                           
  2294                           ;scheduler.c: 82:             if (sch_tasks[index].period == 0) {
  2295  04B9  300D               	movlw	13
  2296  04BA  1283               	bcf	3,5	;RP0=0, select bank0
  2297  04BB  1303               	bcf	3,6	;RP1=0, select bank0
  2298  04BC  00DE               	movwf	??_sch_vid_dispatch_tasks
  2299  04BD  085E               	movf	??_sch_vid_dispatch_tasks,w
  2300  04BE  00D3               	movwf	___bmul@multiplicand
  2301  04BF  0863               	movf	sch_vid_dispatch_tasks@index,w
  2302  04C0  120A  158A  2571  120A  118A  	fcall	___bmul
  2303  04C5  3E25               	addlw	(low ((_sch_tasks| 0+5)))& (0+255)
  2304  04C6  0084               	movwf	4
  2305  04C7  1383               	bcf	3,7	;select IRP bank0
  2306  04C8  0800               	movf	0,w
  2307  04C9  1283               	bcf	3,5	;RP0=0, select bank0
  2308  04CA  1303               	bcf	3,6	;RP1=0, select bank0
  2309  04CB  00DF               	movwf	??_sch_vid_dispatch_tasks+1
  2310  04CC  0A84               	incf	4,f
  2311  04CD  0800               	movf	0,w
  2312  04CE  00E0               	movwf	??_sch_vid_dispatch_tasks+2
  2313  04CF  0A84               	incf	4,f
  2314  04D0  0800               	movf	0,w
  2315  04D1  00E1               	movwf	??_sch_vid_dispatch_tasks+3
  2316  04D2  0A84               	incf	4,f
  2317  04D3  0800               	movf	0,w
  2318  04D4  00E2               	movwf	??_sch_vid_dispatch_tasks+4
  2319  04D5  0862               	movf	??_sch_vid_dispatch_tasks+4,w
  2320  04D6  0461               	iorwf	??_sch_vid_dispatch_tasks+3,w
  2321  04D7  0460               	iorwf	??_sch_vid_dispatch_tasks+2,w
  2322  04D8  045F               	iorwf	??_sch_vid_dispatch_tasks+1,w
  2323  04D9  1D03               	skipz
  2324  04DA  2CDC               	goto	u2271
  2325  04DB  2CDD               	goto	u2270
  2326  04DC                     u2271:	
  2327  04DC  2CE3               	goto	l2694
  2328  04DD                     u2270:	
  2329  04DD                     l2692:	
  2330                           
  2331                           ;scheduler.c: 83:                 sch_vid_delete_task(index);
  2332  04DD  0863               	movf	sch_vid_dispatch_tasks@index,w
  2333  04DE  120A  118A  257C  120A  118A  	fcall	_sch_vid_delete_task
  2334  04E3                     l2694:	
  2335                           
  2336                           ;scheduler.c: 86:     }
  2337  04E3  3001               	movlw	1
  2338  04E4  1283               	bcf	3,5	;RP0=0, select bank0
  2339  04E5  1303               	bcf	3,6	;RP1=0, select bank0
  2340  04E6  00DE               	movwf	??_sch_vid_dispatch_tasks
  2341  04E7  085E               	movf	??_sch_vid_dispatch_tasks,w
  2342  04E8  07E3               	addwf	sch_vid_dispatch_tasks@index,f
  2343  04E9                     l2696:	
  2344  04E9  3003               	movlw	3
  2345  04EA  0263               	subwf	sch_vid_dispatch_tasks@index,w
  2346  04EB  1C03               	skipc
  2347  04EC  2CEE               	goto	u2281
  2348  04ED  2CEF               	goto	u2280
  2349  04EE                     u2281:	
  2350  04EE  2C62               	goto	l2684
  2351  04EF                     u2280:	
  2352  04EF                     l263:	
  2353  04EF  0008               	return
  2354  04F0                     __end_of_sch_vid_dispatch_tasks:	
  2355                           
  2356                           	psect	text7
  2357  0F32                     __ptext7:	
  2358 ;; *************** function _display_vid_blink *****************
  2359 ;; Defined at:
  2360 ;;		line 32 in file "display.c"
  2361 ;; Parameters:    Size  Location     Type
  2362 ;;		None
  2363 ;; Auto vars:     Size  Location     Type
  2364 ;;		None
  2365 ;; Return value:  Size  Location     Type
  2366 ;;                  1    wreg      void 
  2367 ;; Registers used:
  2368 ;;		wreg, status,2, status,0, pclath, cstack
  2369 ;; Tracked objects:
  2370 ;;		On entry : 0/0
  2371 ;;		On exit  : 0/0
  2372 ;;		Unchanged: 0/0
  2373 ;; Data sizes:     COMMON   BANK0   BANK1   BANK3   BANK2
  2374 ;;      Params:         0       0       0       0       0
  2375 ;;      Locals:         0       0       0       0       0
  2376 ;;      Temps:          0       0       0       0       0
  2377 ;;      Totals:         0       0       0       0       0
  2378 ;;Total ram usage:        0 bytes
  2379 ;; Hardware stack levels used:    1
  2380 ;; Hardware stack levels required when called:    4
  2381 ;; This function calls:
  2382 ;;		_ssd_u8_get_state
  2383 ;;		_ssd_vid_set_state
  2384 ;; This function is called by:
  2385 ;;		_main
  2386 ;;		_sch_vid_dispatch_tasks
  2387 ;; This function uses a non-reentrant model
  2388 ;;
  2389                           
  2390                           
  2391                           ;psect for function _display_vid_blink
  2392  0F32                     _display_vid_blink:	
  2393  0F32                     l2540:	
  2394                           ;incstack = 0
  2395                           ; Regs used in _display_vid_blink: [wreg+status,2+status,0+pclath+cstack]
  2396                           
  2397                           
  2398                           ;display.c: 34:     if (settingModeSecondsCounter > 5 && settingModeFlag == 1) {
  2399  0F32  3000               	movlw	0
  2400  0F33  1283               	bcf	3,5	;RP0=0, select bank0
  2401  0F34  1303               	bcf	3,6	;RP1=0, select bank0
  2402  0F35  0248               	subwf	_settingModeSecondsCounter+1,w
  2403  0F36  3006               	movlw	6
  2404  0F37  1903               	skipnz
  2405  0F38  0247               	subwf	_settingModeSecondsCounter,w
  2406  0F39  1C03               	skipc
  2407  0F3A  2F3C               	goto	u2041
  2408  0F3B  2F3D               	goto	u2040
  2409  0F3C                     u2041:	
  2410  0F3C  2F46               	goto	l2546
  2411  0F3D                     u2040:	
  2412  0F3D                     l2542:	
  2413  0F3D  034B               	decf	_settingModeFlag,w
  2414  0F3E  1D03               	btfss	3,2
  2415  0F3F  2F41               	goto	u2051
  2416  0F40  2F42               	goto	u2050
  2417  0F41                     u2051:	
  2418  0F41  2F46               	goto	l2546
  2419  0F42                     u2050:	
  2420  0F42                     l2544:	
  2421                           
  2422                           ;display.c: 35:         settingModeFlag = 0;
  2423  0F42  01CB               	clrf	_settingModeFlag
  2424                           
  2425                           ;display.c: 36:         settingModeSecondsCounter = 0;
  2426  0F43  01C7               	clrf	_settingModeSecondsCounter
  2427  0F44  01C8               	clrf	_settingModeSecondsCounter+1
  2428                           
  2429                           ;display.c: 37:     }
  2430  0F45  2F6F               	goto	l533
  2431  0F46                     l2546:	
  2432  0F46  084B               	movf	_settingModeFlag,w
  2433  0F47  1903               	btfsc	3,2
  2434  0F48  2F4A               	goto	u2061
  2435  0F49  2F4B               	goto	u2060
  2436  0F4A                     u2061:	
  2437  0F4A  2F69               	goto	l2556
  2438  0F4B                     u2060:	
  2439  0F4B                     l2548:	
  2440                           
  2441                           ;display.c: 40:         settingModeSecondsCounter++;
  2442  0F4B  3001               	movlw	1
  2443  0F4C  07C7               	addwf	_settingModeSecondsCounter,f
  2444  0F4D  1803               	skipnc
  2445  0F4E  0AC8               	incf	_settingModeSecondsCounter+1,f
  2446  0F4F  3000               	movlw	0
  2447  0F50  07C8               	addwf	_settingModeSecondsCounter+1,f
  2448  0F51                     l2550:	
  2449                           
  2450                           ;display.c: 41:         if (ssd_u8_get_state() == 1)
  2451  0F51  120A  158A  24C5  120A  158A  	fcall	_ssd_u8_get_state
  2452  0F56  3A01               	xorlw	1
  2453  0F57  1D03               	skipz
  2454  0F58  2F5A               	goto	u2071
  2455  0F59  2F5B               	goto	u2070
  2456  0F5A                     u2071:	
  2457  0F5A  2F62               	goto	l2554
  2458  0F5B                     u2070:	
  2459  0F5B                     l2552:	
  2460                           
  2461                           ;display.c: 42:             ssd_vid_set_state(0);
  2462  0F5B  3000               	movlw	0
  2463  0F5C  120A  158A  24C9  120A  158A  	fcall	_ssd_vid_set_state
  2464  0F61  2F6F               	goto	l533
  2465  0F62                     l2554:	
  2466                           
  2467                           ;display.c: 44:                         ssd_vid_set_state(1);
  2468  0F62  3001               	movlw	1
  2469  0F63  120A  158A  24C9  120A  158A  	fcall	_ssd_vid_set_state
  2470  0F68  2F6F               	goto	l533
  2471  0F69                     l2556:	
  2472                           
  2473                           ;display.c: 49:         ssd_vid_set_state(1);
  2474  0F69  3001               	movlw	1
  2475  0F6A  120A  158A  24C9  120A  158A  	fcall	_ssd_vid_set_state
  2476  0F6F                     l533:	
  2477  0F6F  0008               	return
  2478  0F70                     __end_of_display_vid_blink:	
  2479                           
  2480                           	psect	text8
  2481  02F5                     __ptext8:	
  2482 ;; *************** function _counter_vid_update *****************
  2483 ;; Defined at:
  2484 ;;		line 38 in file "counter.c"
  2485 ;; Parameters:    Size  Location     Type
  2486 ;;		None
  2487 ;; Auto vars:     Size  Location     Type
  2488 ;;		None
  2489 ;; Return value:  Size  Location     Type
  2490 ;;                  1    wreg      void 
  2491 ;; Registers used:
  2492 ;;		wreg, fsr0l, fsr0h, status,2, status,0, btemp+1, pclath, cstack
  2493 ;; Tracked objects:
  2494 ;;		On entry : 0/0
  2495 ;;		On exit  : 0/0
  2496 ;;		Unchanged: 0/0
  2497 ;; Data sizes:     COMMON   BANK0   BANK1   BANK3   BANK2
  2498 ;;      Params:         0       0       0       0       0
  2499 ;;      Locals:         0       0       0       0       0
  2500 ;;      Temps:          0       2       0       0       0
  2501 ;;      Totals:         0       2       0       0       0
  2502 ;;Total ram usage:        2 bytes
  2503 ;; Hardware stack levels used:    1
  2504 ;; Hardware stack levels required when called:    6
  2505 ;; This function calls:
  2506 ;;		_dio_u8_read_pin_value
  2507 ;;		_eeprom_external_vid_write
  2508 ;;		_ssd_vid_set_symbol
  2509 ;; This function is called by:
  2510 ;;		_main
  2511 ;;		_sch_vid_dispatch_tasks
  2512 ;; This function uses a non-reentrant model
  2513 ;;
  2514                           
  2515                           
  2516                           ;psect for function _counter_vid_update
  2517  02F5                     _counter_vid_update:	
  2518  02F5                     l2498:	
  2519                           ;incstack = 0
  2520                           ; Regs used in _counter_vid_update: [wreg-fsr0h+status,2+status,0+btemp+1+pclath+cstack]
  2521                           
  2522                           
  2523                           ;counter.c: 39:     if (dio_u8_read_pin_value(B, 2) == 0 && buttonPressedFlag == 0) {
  2524  02F5  3002               	movlw	2
  2525  02F6  1283               	bcf	3,5	;RP0=0, select bank0
  2526  02F7  1303               	bcf	3,6	;RP1=0, select bank0
  2527  02F8  00DA               	movwf	??_counter_vid_update
  2528  02F9  085A               	movf	??_counter_vid_update,w
  2529  02FA  00D6               	movwf	dio_u8_read_pin_value@index
  2530  02FB  3001               	movlw	1
  2531  02FC  120A  158A  25A1  120A  118A  	fcall	_dio_u8_read_pin_value
  2532  0301  3A00               	xorlw	0
  2533  0302  1D03               	skipz
  2534  0303  2B05               	goto	u1961
  2535  0304  2B06               	goto	u1960
  2536  0305                     u1961:	
  2537  0305  2B41               	goto	l2516
  2538  0306                     u1960:	
  2539  0306                     l2500:	
  2540  0306  1283               	bcf	3,5	;RP0=0, select bank0
  2541  0307  1303               	bcf	3,6	;RP1=0, select bank0
  2542  0308  084C               	movf	_buttonPressedFlag,w
  2543  0309  1D03               	btfss	3,2
  2544  030A  2B0C               	goto	u1971
  2545  030B  2B0D               	goto	u1970
  2546  030C                     u1971:	
  2547  030C  2B41               	goto	l2516
  2548  030D                     u1970:	
  2549  030D                     l2502:	
  2550                           
  2551                           ;counter.c: 40:         settingModeFlag = 1;
  2552  030D  01CB               	clrf	_settingModeFlag
  2553  030E  0ACB               	incf	_settingModeFlag,f
  2554  030F                     l2504:	
  2555                           
  2556                           ;counter.c: 41:         settingModeSecondsCounter = 0;
  2557  030F  01C7               	clrf	_settingModeSecondsCounter
  2558  0310  01C8               	clrf	_settingModeSecondsCounter+1
  2559  0311                     l2506:	
  2560                           
  2561                           ;counter.c: 42:         buttonPressedFlag = 1;
  2562  0311  01CC               	clrf	_buttonPressedFlag
  2563  0312  0ACC               	incf	_buttonPressedFlag,f
  2564  0313                     l2508:	
  2565                           
  2566                           ;counter.c: 43:         if (counter + 5 < 80) {
  2567  0313  0865               	movf	_counter,w
  2568  0314  3E05               	addlw	5
  2569  0315  00DA               	movwf	??_counter_vid_update
  2570  0316  3000               	movlw	0
  2571  0317  1803               	skipnc
  2572  0318  3001               	movlw	1
  2573  0319  00DB               	movwf	??_counter_vid_update+1
  2574  031A  085B               	movf	??_counter_vid_update+1,w
  2575  031B  3A80               	xorlw	128
  2576  031C  00FF               	movwf	btemp+1
  2577  031D  3080               	movlw	128
  2578  031E  027F               	subwf	btemp+1,w
  2579  031F  1D03               	skipz
  2580  0320  2B23               	goto	u1985
  2581  0321  3050               	movlw	80
  2582  0322  025A               	subwf	??_counter_vid_update,w
  2583  0323                     u1985:	
  2584  0323  1803               	skipnc
  2585  0324  2B26               	goto	u1981
  2586  0325  2B27               	goto	u1980
  2587  0326                     u1981:	
  2588  0326  2B88               	goto	l2534
  2589  0327                     u1980:	
  2590  0327                     l2510:	
  2591                           
  2592                           ;counter.c: 44:             eeprom_external_vid_write(0, counter + 5);
  2593  0327  1283               	bcf	3,5	;RP0=0, select bank0
  2594  0328  1303               	bcf	3,6	;RP1=0, select bank0
  2595  0329  0865               	movf	_counter,w
  2596  032A  3E05               	addlw	5
  2597  032B  00DA               	movwf	??_counter_vid_update
  2598  032C  085A               	movf	??_counter_vid_update,w
  2599  032D  00D5               	movwf	eeprom_external_vid_write@data
  2600  032E  3000               	movlw	0
  2601  032F  120A  158A  268A  120A  118A  	fcall	_eeprom_external_vid_write
  2602  0334                     l2512:	
  2603                           
  2604                           ;counter.c: 45:             counter += 5;
  2605  0334  3005               	movlw	5
  2606  0335  1283               	bcf	3,5	;RP0=0, select bank0
  2607  0336  1303               	bcf	3,6	;RP1=0, select bank0
  2608  0337  00DA               	movwf	??_counter_vid_update
  2609  0338  085A               	movf	??_counter_vid_update,w
  2610  0339  07E5               	addwf	_counter,f
  2611  033A                     l2514:	
  2612                           
  2613                           ;counter.c: 46:             ssd_vid_set_symbol(counter);
  2614  033A  0865               	movf	_counter,w
  2615  033B  120A  158A  24FC  120A  118A  	fcall	_ssd_vid_set_symbol
  2616  0340  2B88               	goto	l2534
  2617  0341                     l2516:	
  2618  0341  1283               	bcf	3,5	;RP0=0, select bank0
  2619  0342  1303               	bcf	3,6	;RP1=0, select bank0
  2620  0343  01D6               	clrf	dio_u8_read_pin_value@index
  2621  0344  0AD6               	incf	dio_u8_read_pin_value@index,f
  2622  0345  3001               	movlw	1
  2623  0346  120A  158A  25A1  120A  118A  	fcall	_dio_u8_read_pin_value
  2624  034B  3A00               	xorlw	0
  2625  034C  1D03               	skipz
  2626  034D  2B4F               	goto	u1991
  2627  034E  2B50               	goto	u1990
  2628  034F                     u1991:	
  2629  034F  2B88               	goto	l2534
  2630  0350                     u1990:	
  2631  0350                     l2518:	
  2632  0350  1283               	bcf	3,5	;RP0=0, select bank0
  2633  0351  1303               	bcf	3,6	;RP1=0, select bank0
  2634  0352  084C               	movf	_buttonPressedFlag,w
  2635  0353  1D03               	btfss	3,2
  2636  0354  2B56               	goto	u2001
  2637  0355  2B57               	goto	u2000
  2638  0356                     u2001:	
  2639  0356  2B88               	goto	l2534
  2640  0357                     u2000:	
  2641  0357                     l2520:	
  2642                           
  2643                           ;counter.c: 49:         settingModeFlag = 1;
  2644  0357  01CB               	clrf	_settingModeFlag
  2645  0358  0ACB               	incf	_settingModeFlag,f
  2646  0359                     l2522:	
  2647                           
  2648                           ;counter.c: 50:         settingModeSecondsCounter = 0;
  2649  0359  01C7               	clrf	_settingModeSecondsCounter
  2650  035A  01C8               	clrf	_settingModeSecondsCounter+1
  2651  035B                     l2524:	
  2652                           
  2653                           ;counter.c: 51:         buttonPressedFlag = 1;
  2654  035B  01CC               	clrf	_buttonPressedFlag
  2655  035C  0ACC               	incf	_buttonPressedFlag,f
  2656  035D                     l2526:	
  2657                           
  2658                           ;counter.c: 52:         if (counter - 5 > 30) {
  2659  035D  0865               	movf	_counter,w
  2660  035E  3EFB               	addlw	251
  2661  035F  00DA               	movwf	??_counter_vid_update
  2662  0360  30FF               	movlw	255
  2663  0361  1803               	skipnc
  2664  0362  3000               	movlw	0
  2665  0363  00DB               	movwf	??_counter_vid_update+1
  2666  0364  085B               	movf	??_counter_vid_update+1,w
  2667  0365  3A80               	xorlw	128
  2668  0366  00FF               	movwf	btemp+1
  2669  0367  3080               	movlw	128
  2670  0368  027F               	subwf	btemp+1,w
  2671  0369  1D03               	skipz
  2672  036A  2B6D               	goto	u2015
  2673  036B  301F               	movlw	31
  2674  036C  025A               	subwf	??_counter_vid_update,w
  2675  036D                     u2015:	
  2676  036D  1C03               	skipc
  2677  036E  2B70               	goto	u2011
  2678  036F  2B71               	goto	u2010
  2679  0370                     u2011:	
  2680  0370  2B88               	goto	l2534
  2681  0371                     u2010:	
  2682  0371                     l2528:	
  2683                           
  2684                           ;counter.c: 53:             eeprom_external_vid_write(0, counter - 5);
  2685  0371  1283               	bcf	3,5	;RP0=0, select bank0
  2686  0372  1303               	bcf	3,6	;RP1=0, select bank0
  2687  0373  0865               	movf	_counter,w
  2688  0374  3EFB               	addlw	251
  2689  0375  00DA               	movwf	??_counter_vid_update
  2690  0376  085A               	movf	??_counter_vid_update,w
  2691  0377  00D5               	movwf	eeprom_external_vid_write@data
  2692  0378  3000               	movlw	0
  2693  0379  120A  158A  268A  120A  118A  	fcall	_eeprom_external_vid_write
  2694  037E                     l2530:	
  2695                           
  2696                           ;counter.c: 54:             counter -= 5;
  2697  037E  3005               	movlw	5
  2698  037F  1283               	bcf	3,5	;RP0=0, select bank0
  2699  0380  1303               	bcf	3,6	;RP1=0, select bank0
  2700  0381  02E5               	subwf	_counter,f
  2701  0382                     l2532:	
  2702                           
  2703                           ;counter.c: 55:             ssd_vid_set_symbol(counter);
  2704  0382  0865               	movf	_counter,w
  2705  0383  120A  158A  24FC  120A  118A  	fcall	_ssd_vid_set_symbol
  2706  0388                     l2534:	
  2707                           
  2708                           ;counter.c: 58:     if (dio_u8_read_pin_value(B, 2) && dio_u8_read_pin_value(B, 1))
  2709  0388  3002               	movlw	2
  2710  0389  1283               	bcf	3,5	;RP0=0, select bank0
  2711  038A  1303               	bcf	3,6	;RP1=0, select bank0
  2712  038B  00DA               	movwf	??_counter_vid_update
  2713  038C  085A               	movf	??_counter_vid_update,w
  2714  038D  00D6               	movwf	dio_u8_read_pin_value@index
  2715  038E  3001               	movlw	1
  2716  038F  120A  158A  25A1  120A  118A  	fcall	_dio_u8_read_pin_value
  2717  0394  3A00               	xorlw	0
  2718  0395  1903               	skipnz
  2719  0396  2B98               	goto	u2021
  2720  0397  2B99               	goto	u2020
  2721  0398                     u2021:	
  2722  0398  2BAB               	goto	l503
  2723  0399                     u2020:	
  2724  0399                     l2536:	
  2725  0399  1283               	bcf	3,5	;RP0=0, select bank0
  2726  039A  1303               	bcf	3,6	;RP1=0, select bank0
  2727  039B  01D6               	clrf	dio_u8_read_pin_value@index
  2728  039C  0AD6               	incf	dio_u8_read_pin_value@index,f
  2729  039D  3001               	movlw	1
  2730  039E  120A  158A  25A1  120A  118A  	fcall	_dio_u8_read_pin_value
  2731  03A3  3A00               	xorlw	0
  2732  03A4  1903               	skipnz
  2733  03A5  2BA7               	goto	u2031
  2734  03A6  2BA8               	goto	u2030
  2735  03A7                     u2031:	
  2736  03A7  2BAB               	goto	l503
  2737  03A8                     u2030:	
  2738  03A8                     l2538:	
  2739                           
  2740                           ;counter.c: 59:         buttonPressedFlag = 0;
  2741  03A8  1283               	bcf	3,5	;RP0=0, select bank0
  2742  03A9  1303               	bcf	3,6	;RP1=0, select bank0
  2743  03AA  01CC               	clrf	_buttonPressedFlag
  2744  03AB                     l503:	
  2745  03AB  0008               	return
  2746  03AC                     __end_of_counter_vid_update:	
  2747                           
  2748                           	psect	text9
  2749  03AC                     __ptext9:	
  2750 ;; *************** function _ssd_vid_update *****************
  2751 ;; Defined at:
  2752 ;;		line 31 in file "ssd.c"
  2753 ;; Parameters:    Size  Location     Type
  2754 ;;		None
  2755 ;; Auto vars:     Size  Location     Type
  2756 ;;  tens            1   16[BANK0 ] unsigned char 
  2757 ;;  ones            1   15[BANK0 ] unsigned char 
  2758 ;; Return value:  Size  Location     Type
  2759 ;;                  1    wreg      void 
  2760 ;; Registers used:
  2761 ;;		wreg, fsr0l, fsr0h, status,2, status,0, pclath, cstack
  2762 ;; Tracked objects:
  2763 ;;		On entry : 0/0
  2764 ;;		On exit  : 0/0
  2765 ;;		Unchanged: 0/0
  2766 ;; Data sizes:     COMMON   BANK0   BANK1   BANK3   BANK2
  2767 ;;      Params:         0       0       0       0       0
  2768 ;;      Locals:         0       2       0       0       0
  2769 ;;      Temps:          0       1       0       0       0
  2770 ;;      Totals:         0       3       0       0       0
  2771 ;;Total ram usage:        3 bytes
  2772 ;; Hardware stack levels used:    1
  2773 ;; Hardware stack levels required when called:    5
  2774 ;; This function calls:
  2775 ;;		___lwdiv
  2776 ;;		___lwmod
  2777 ;;		_dio_u8_read_pin_value
  2778 ;;		_dio_vid_set_pin_value
  2779 ;;		_dio_vid_set_port_value
  2780 ;;		_ssd_u8_get_code
  2781 ;; This function is called by:
  2782 ;;		_main
  2783 ;;		_sch_vid_dispatch_tasks
  2784 ;; This function uses a non-reentrant model
  2785 ;;
  2786                           
  2787                           
  2788                           ;psect for function _ssd_vid_update
  2789  03AC                     _ssd_vid_update:	
  2790  03AC                     l2450:	
  2791                           ;incstack = 0
  2792                           ; Regs used in _ssd_vid_update: [wreg-fsr0h+status,2+status,0+pclath+cstack]
  2793                           
  2794                           
  2795                           ;ssd.c: 32:     if (ssdState == 0) {
  2796  03AC  1283               	bcf	3,5	;RP0=0, select bank0
  2797  03AD  1303               	bcf	3,6	;RP1=0, select bank0
  2798  03AE  0866               	movf	_ssdState,w
  2799  03AF  1D03               	btfss	3,2
  2800  03B0  2BB2               	goto	u1911
  2801  03B1  2BB3               	goto	u1910
  2802  03B2                     u1911:	
  2803  03B2  2BCC               	goto	l2456
  2804  03B3                     u1910:	
  2805  03B3                     l2452:	
  2806                           
  2807                           ;ssd.c: 34:         dio_vid_set_pin_value(A, 2, 0);
  2808  03B3  3002               	movlw	2
  2809  03B4  00DB               	movwf	??_ssd_vid_update
  2810  03B5  085B               	movf	??_ssd_vid_update,w
  2811  03B6  00D3               	movwf	dio_vid_set_pin_value@index
  2812  03B7  01D4               	clrf	dio_vid_set_pin_value@value
  2813  03B8  3000               	movlw	0
  2814  03B9  120A  118A  2145  120A  118A  	fcall	_dio_vid_set_pin_value
  2815                           
  2816                           ;ssd.c: 35:         dio_vid_set_pin_value(A, 3, 0);
  2817  03BE  3003               	movlw	3
  2818  03BF  1283               	bcf	3,5	;RP0=0, select bank0
  2819  03C0  1303               	bcf	3,6	;RP1=0, select bank0
  2820  03C1  00DB               	movwf	??_ssd_vid_update
  2821  03C2  085B               	movf	??_ssd_vid_update,w
  2822  03C3  00D3               	movwf	dio_vid_set_pin_value@index
  2823  03C4  01D4               	clrf	dio_vid_set_pin_value@value
  2824  03C5  3000               	movlw	0
  2825  03C6  120A  118A  2145  120A  118A  	fcall	_dio_vid_set_pin_value
  2826  03CB  2C5E               	goto	l193
  2827  03CC                     l2456:	
  2828                           
  2829                           ;ssd.c: 38:     u8 ones = ssdSymbol % 10;
  2830  03CC  300A               	movlw	10
  2831  03CD  00D3               	movwf	___lwmod@divisor
  2832  03CE  3000               	movlw	0
  2833  03CF  00D4               	movwf	___lwmod@divisor+1
  2834  03D0  084A               	movf	_ssdSymbol+1,w
  2835  03D1  00D6               	movwf	___lwmod@dividend+1
  2836  03D2  0849               	movf	_ssdSymbol,w
  2837  03D3  00D5               	movwf	___lwmod@dividend
  2838  03D4  120A  158A  26F6  120A  118A  	fcall	___lwmod
  2839  03D9  1283               	bcf	3,5	;RP0=0, select bank0
  2840  03DA  1303               	bcf	3,6	;RP1=0, select bank0
  2841  03DB  0853               	movf	?___lwmod,w
  2842  03DC  00DB               	movwf	??_ssd_vid_update
  2843  03DD  085B               	movf	??_ssd_vid_update,w
  2844  03DE  00DC               	movwf	ssd_vid_update@ones
  2845                           
  2846                           ;ssd.c: 39:     u8 tens = ssdSymbol / 10;
  2847  03DF  300A               	movlw	10
  2848  03E0  00D3               	movwf	___lwdiv@divisor
  2849  03E1  3000               	movlw	0
  2850  03E2  00D4               	movwf	___lwdiv@divisor+1
  2851  03E3  084A               	movf	_ssdSymbol+1,w
  2852  03E4  00D6               	movwf	___lwdiv@dividend+1
  2853  03E5  0849               	movf	_ssdSymbol,w
  2854  03E6  00D5               	movwf	___lwdiv@dividend
  2855  03E7  120A  158A  2770  120A  118A  	fcall	___lwdiv
  2856  03EC  1283               	bcf	3,5	;RP0=0, select bank0
  2857  03ED  1303               	bcf	3,6	;RP1=0, select bank0
  2858  03EE  0853               	movf	?___lwdiv,w
  2859  03EF  00DB               	movwf	??_ssd_vid_update
  2860  03F0  085B               	movf	??_ssd_vid_update,w
  2861  03F1  00DD               	movwf	ssd_vid_update@tens
  2862  03F2                     l2458:	
  2863                           
  2864                           ;ssd.c: 41:     if (dio_u8_read_pin_value(A, 3) == 1) {
  2865  03F2  3003               	movlw	3
  2866  03F3  00DB               	movwf	??_ssd_vid_update
  2867  03F4  085B               	movf	??_ssd_vid_update,w
  2868  03F5  00D6               	movwf	dio_u8_read_pin_value@index
  2869  03F6  3000               	movlw	0
  2870  03F7  120A  158A  25A1  120A  118A  	fcall	_dio_u8_read_pin_value
  2871  03FC  3A01               	xorlw	1
  2872  03FD  1D03               	skipz
  2873  03FE  2C00               	goto	u1921
  2874  03FF  2C01               	goto	u1920
  2875  0400                     u1921:	
  2876  0400  2C30               	goto	l2462
  2877  0401                     u1920:	
  2878  0401                     l2460:	
  2879                           
  2880                           ;ssd.c: 42:         dio_vid_set_pin_value(A, 3, 0);
  2881  0401  3003               	movlw	3
  2882  0402  1283               	bcf	3,5	;RP0=0, select bank0
  2883  0403  1303               	bcf	3,6	;RP1=0, select bank0
  2884  0404  00DB               	movwf	??_ssd_vid_update
  2885  0405  085B               	movf	??_ssd_vid_update,w
  2886  0406  00D3               	movwf	dio_vid_set_pin_value@index
  2887  0407  01D4               	clrf	dio_vid_set_pin_value@value
  2888  0408  3000               	movlw	0
  2889  0409  120A  118A  2145  120A  118A  	fcall	_dio_vid_set_pin_value
  2890                           
  2891                           ;ssd.c: 43:         dio_vid_set_pin_value(A, 2, 1);
  2892  040E  3002               	movlw	2
  2893  040F  1283               	bcf	3,5	;RP0=0, select bank0
  2894  0410  1303               	bcf	3,6	;RP1=0, select bank0
  2895  0411  00DB               	movwf	??_ssd_vid_update
  2896  0412  085B               	movf	??_ssd_vid_update,w
  2897  0413  00D3               	movwf	dio_vid_set_pin_value@index
  2898  0414  01D4               	clrf	dio_vid_set_pin_value@value
  2899  0415  0AD4               	incf	dio_vid_set_pin_value@value,f
  2900  0416  3000               	movlw	0
  2901  0417  120A  118A  2145  120A  118A  	fcall	_dio_vid_set_pin_value
  2902                           
  2903                           ;ssd.c: 44:         dio_vid_set_port_value(D, ssd_u8_get_code(tens));
  2904  041C  1283               	bcf	3,5	;RP0=0, select bank0
  2905  041D  1303               	bcf	3,6	;RP1=0, select bank0
  2906  041E  085D               	movf	ssd_vid_update@tens,w
  2907  041F  120A  118A  27BD  120A  118A  	fcall	_ssd_u8_get_code
  2908  0424  1283               	bcf	3,5	;RP0=0, select bank0
  2909  0425  1303               	bcf	3,6	;RP1=0, select bank0
  2910  0426  00DB               	movwf	??_ssd_vid_update
  2911  0427  085B               	movf	??_ssd_vid_update,w
  2912  0428  00D6               	movwf	dio_vid_set_port_value@value
  2913  0429  3003               	movlw	3
  2914  042A  120A  158A  265D  120A  118A  	fcall	_dio_vid_set_port_value
  2915                           
  2916                           ;ssd.c: 45:     } else {
  2917  042F  2C5E               	goto	l193
  2918  0430                     l2462:	
  2919                           
  2920                           ;ssd.c: 46:         dio_vid_set_pin_value(A, 2, 0);
  2921  0430  3002               	movlw	2
  2922  0431  1283               	bcf	3,5	;RP0=0, select bank0
  2923  0432  1303               	bcf	3,6	;RP1=0, select bank0
  2924  0433  00DB               	movwf	??_ssd_vid_update
  2925  0434  085B               	movf	??_ssd_vid_update,w
  2926  0435  00D3               	movwf	dio_vid_set_pin_value@index
  2927  0436  01D4               	clrf	dio_vid_set_pin_value@value
  2928  0437  3000               	movlw	0
  2929  0438  120A  118A  2145  120A  118A  	fcall	_dio_vid_set_pin_value
  2930                           
  2931                           ;ssd.c: 47:         dio_vid_set_pin_value(A, 3, 1);
  2932  043D  3003               	movlw	3
  2933  043E  1283               	bcf	3,5	;RP0=0, select bank0
  2934  043F  1303               	bcf	3,6	;RP1=0, select bank0
  2935  0440  00DB               	movwf	??_ssd_vid_update
  2936  0441  085B               	movf	??_ssd_vid_update,w
  2937  0442  00D3               	movwf	dio_vid_set_pin_value@index
  2938  0443  01D4               	clrf	dio_vid_set_pin_value@value
  2939  0444  0AD4               	incf	dio_vid_set_pin_value@value,f
  2940  0445  3000               	movlw	0
  2941  0446  120A  118A  2145  120A  118A  	fcall	_dio_vid_set_pin_value
  2942                           
  2943                           ;ssd.c: 48:         dio_vid_set_port_value(D, ssd_u8_get_code(ones));
  2944  044B  1283               	bcf	3,5	;RP0=0, select bank0
  2945  044C  1303               	bcf	3,6	;RP1=0, select bank0
  2946  044D  085C               	movf	ssd_vid_update@ones,w
  2947  044E  120A  118A  27BD  120A  118A  	fcall	_ssd_u8_get_code
  2948  0453  1283               	bcf	3,5	;RP0=0, select bank0
  2949  0454  1303               	bcf	3,6	;RP1=0, select bank0
  2950  0455  00DB               	movwf	??_ssd_vid_update
  2951  0456  085B               	movf	??_ssd_vid_update,w
  2952  0457  00D6               	movwf	dio_vid_set_port_value@value
  2953  0458  3003               	movlw	3
  2954  0459  120A  158A  265D  120A  118A  	fcall	_dio_vid_set_port_value
  2955  045E                     l193:	
  2956  045E  0008               	return
  2957  045F                     __end_of_ssd_vid_update:	
  2958                           
  2959                           	psect	text10
  2960  07BD                     __ptext10:	
  2961 ;; *************** function _ssd_u8_get_code *****************
  2962 ;; Defined at:
  2963 ;;		line 71 in file "ssd.c"
  2964 ;; Parameters:    Size  Location     Type
  2965 ;;  number          1    wreg     unsigned char 
  2966 ;; Auto vars:     Size  Location     Type
  2967 ;;  number          1    8[BANK0 ] unsigned char 
  2968 ;; Return value:  Size  Location     Type
  2969 ;;                  1    wreg      unsigned char 
  2970 ;; Registers used:
  2971 ;;		wreg, fsr0l, fsr0h, status,2, status,0
  2972 ;; Tracked objects:
  2973 ;;		On entry : 0/0
  2974 ;;		On exit  : 0/0
  2975 ;;		Unchanged: 0/0
  2976 ;; Data sizes:     COMMON   BANK0   BANK1   BANK3   BANK2
  2977 ;;      Params:         0       0       0       0       0
  2978 ;;      Locals:         0       1       0       0       0
  2979 ;;      Temps:          0       2       0       0       0
  2980 ;;      Totals:         0       3       0       0       0
  2981 ;;Total ram usage:        3 bytes
  2982 ;; Hardware stack levels used:    1
  2983 ;; Hardware stack levels required when called:    3
  2984 ;; This function calls:
  2985 ;;		Nothing
  2986 ;; This function is called by:
  2987 ;;		_ssd_vid_update
  2988 ;; This function uses a non-reentrant model
  2989 ;;
  2990                           
  2991                           
  2992                           ;psect for function _ssd_u8_get_code
  2993  07BD                     _ssd_u8_get_code:	
  2994                           
  2995                           ;incstack = 0
  2996                           ; Regs used in _ssd_u8_get_code: [wreg-fsr0h+status,2+status,0]
  2997                           ;ssd_u8_get_code@number stored from wreg
  2998  07BD  1283               	bcf	3,5	;RP0=0, select bank0
  2999  07BE  1303               	bcf	3,6	;RP1=0, select bank0
  3000  07BF  00D5               	movwf	ssd_u8_get_code@number
  3001  07C0                     l2224:	
  3002                           
  3003                           ;ssd.c: 72:     switch (number) {
  3004  07C0  2FD7               	goto	l2272
  3005  07C1                     l2226:	
  3006                           
  3007                           ;ssd.c: 74:             return 0x3F;
  3008  07C1  303F               	movlw	63
  3009  07C2  2FFF               	goto	l212
  3010  07C3                     l2230:	
  3011                           
  3012                           ;ssd.c: 76:             return 0x06;
  3013  07C3  3006               	movlw	6
  3014  07C4  2FFF               	goto	l212
  3015  07C5                     l2234:	
  3016                           
  3017                           ;ssd.c: 78:             return 0x5B;
  3018  07C5  305B               	movlw	91
  3019  07C6  2FFF               	goto	l212
  3020  07C7                     l2238:	
  3021                           
  3022                           ;ssd.c: 80:             return 0x4F;
  3023  07C7  304F               	movlw	79
  3024  07C8  2FFF               	goto	l212
  3025  07C9                     l2242:	
  3026                           
  3027                           ;ssd.c: 82:             return 0x66;
  3028  07C9  3066               	movlw	102
  3029  07CA  2FFF               	goto	l212
  3030  07CB                     l2246:	
  3031                           
  3032                           ;ssd.c: 84:             return 0x6D;
  3033  07CB  306D               	movlw	109
  3034  07CC  2FFF               	goto	l212
  3035  07CD                     l2250:	
  3036                           
  3037                           ;ssd.c: 86:             return 0x7D;
  3038  07CD  307D               	movlw	125
  3039  07CE  2FFF               	goto	l212
  3040  07CF                     l2254:	
  3041                           
  3042                           ;ssd.c: 88:             return 0x07;
  3043  07CF  3007               	movlw	7
  3044  07D0  2FFF               	goto	l212
  3045  07D1                     l2258:	
  3046                           
  3047                           ;ssd.c: 90:             return 0x7F;
  3048  07D1  307F               	movlw	127
  3049  07D2  2FFF               	goto	l212
  3050  07D3                     l2262:	
  3051                           
  3052                           ;ssd.c: 92:             return 0x6F;
  3053  07D3  306F               	movlw	111
  3054  07D4  2FFF               	goto	l212
  3055  07D5                     l2266:	
  3056                           
  3057                           ;ssd.c: 94:             return 0;
  3058  07D5  3000               	movlw	0
  3059  07D6  2FFF               	goto	l212
  3060  07D7                     l2272:	
  3061  07D7  0855               	movf	ssd_u8_get_code@number,w
  3062  07D8  00D3               	movwf	??_ssd_u8_get_code
  3063  07D9  01D4               	clrf	??_ssd_u8_get_code+1
  3064                           
  3065                           ; Switch on 2 bytes has been partitioned into a top level switch of size 1, and 1 sub-sw
      +                          itches
  3066                           ; Switch size 1, requested type "simple"
  3067                           ; Number of cases is 1, Range of values is 0 to 0
  3068                           ; switch strategies available:
  3069                           ; Name         Instructions Cycles
  3070                           ; simple_byte            4     3 (average)
  3071                           ; direct_byte           11     8 (fixed)
  3072                           ; jumptable            260     6 (fixed)
  3073                           ;	Chosen strategy is simple_byte
  3074  07DA  0854               	movf	??_ssd_u8_get_code+1,w
  3075  07DB  3A00               	xorlw	0	; case 0
  3076  07DC  1903               	skipnz
  3077  07DD  2FDF               	goto	l3050
  3078  07DE  2FD5               	goto	l2266
  3079  07DF                     l3050:	
  3080                           
  3081                           ; Switch size 1, requested type "simple"
  3082                           ; Number of cases is 10, Range of values is 0 to 9
  3083                           ; switch strategies available:
  3084                           ; Name         Instructions Cycles
  3085                           ; simple_byte           31    16 (average)
  3086                           ; direct_byte           38     8 (fixed)
  3087                           ; jumptable            260     6 (fixed)
  3088                           ;	Chosen strategy is simple_byte
  3089  07DF  0853               	movf	??_ssd_u8_get_code,w
  3090  07E0  3A00               	xorlw	0	; case 0
  3091  07E1  1903               	skipnz
  3092  07E2  2FC1               	goto	l2226
  3093  07E3  3A01               	xorlw	1	; case 1
  3094  07E4  1903               	skipnz
  3095  07E5  2FC3               	goto	l2230
  3096  07E6  3A03               	xorlw	3	; case 2
  3097  07E7  1903               	skipnz
  3098  07E8  2FC5               	goto	l2234
  3099  07E9  3A01               	xorlw	1	; case 3
  3100  07EA  1903               	skipnz
  3101  07EB  2FC7               	goto	l2238
  3102  07EC  3A07               	xorlw	7	; case 4
  3103  07ED  1903               	skipnz
  3104  07EE  2FC9               	goto	l2242
  3105  07EF  3A01               	xorlw	1	; case 5
  3106  07F0  1903               	skipnz
  3107  07F1  2FCB               	goto	l2246
  3108  07F2  3A03               	xorlw	3	; case 6
  3109  07F3  1903               	skipnz
  3110  07F4  2FCD               	goto	l2250
  3111  07F5  3A01               	xorlw	1	; case 7
  3112  07F6  1903               	skipnz
  3113  07F7  2FCF               	goto	l2254
  3114  07F8  3A0F               	xorlw	15	; case 8
  3115  07F9  1903               	skipnz
  3116  07FA  2FD1               	goto	l2258
  3117  07FB  3A01               	xorlw	1	; case 9
  3118  07FC  1903               	skipnz
  3119  07FD  2FD3               	goto	l2262
  3120  07FE  2FD5               	goto	l2266
  3121  07FF                     l212:	
  3122  07FF  0008               	return
  3123  0800                     __end_of_ssd_u8_get_code:	
  3124                           
  3125                           	psect	text11
  3126  0E5D                     __ptext11:	
  3127 ;; *************** function _dio_vid_set_port_value *****************
  3128 ;; Defined at:
  3129 ;;		line 33 in file "dio.c"
  3130 ;; Parameters:    Size  Location     Type
  3131 ;;  portNumber      1    wreg     unsigned char 
  3132 ;;  value           1    9[BANK0 ] unsigned char 
  3133 ;; Auto vars:     Size  Location     Type
  3134 ;;  portNumber      1   12[BANK0 ] unsigned char 
  3135 ;; Return value:  Size  Location     Type
  3136 ;;                  1    wreg      void 
  3137 ;; Registers used:
  3138 ;;		wreg, fsr0l, fsr0h, status,2, status,0
  3139 ;; Tracked objects:
  3140 ;;		On entry : 0/0
  3141 ;;		On exit  : 0/0
  3142 ;;		Unchanged: 0/0
  3143 ;; Data sizes:     COMMON   BANK0   BANK1   BANK3   BANK2
  3144 ;;      Params:         0       1       0       0       0
  3145 ;;      Locals:         0       1       0       0       0
  3146 ;;      Temps:          0       2       0       0       0
  3147 ;;      Totals:         0       4       0       0       0
  3148 ;;Total ram usage:        4 bytes
  3149 ;; Hardware stack levels used:    1
  3150 ;; Hardware stack levels required when called:    3
  3151 ;; This function calls:
  3152 ;;		Nothing
  3153 ;; This function is called by:
  3154 ;;		_ssd_vid_update
  3155 ;;		_lcd_vid_write_charachter
  3156 ;;		_lcd_vid_write_command
  3157 ;;		_display_init
  3158 ;; This function uses a non-reentrant model
  3159 ;;
  3160                           
  3161                           
  3162                           ;psect for function _dio_vid_set_port_value
  3163  0E5D                     _dio_vid_set_port_value:	
  3164                           
  3165                           ;incstack = 0
  3166                           ; Regs used in _dio_vid_set_port_value: [wreg-fsr0h+status,2+status,0]
  3167                           ;dio_vid_set_port_value@portNumber stored from wreg
  3168  0E5D  1283               	bcf	3,5	;RP0=0, select bank0
  3169  0E5E  1303               	bcf	3,6	;RP1=0, select bank0
  3170  0E5F  00D9               	movwf	dio_vid_set_port_value@portNumber
  3171  0E60                     l2144:	
  3172                           
  3173                           ;dio.c: 34:  switch (portNumber) {
  3174  0E60  2E70               	goto	l2158
  3175  0E61                     l2146:	
  3176                           
  3177                           ;dio.c: 36:   PORTA = value;
  3178  0E61  0856               	movf	dio_vid_set_port_value@value,w
  3179  0E62  0085               	movwf	5	;volatile
  3180                           
  3181                           ;dio.c: 37:   break;
  3182  0E63  2E89               	goto	l66
  3183  0E64                     l2148:	
  3184                           
  3185                           ;dio.c: 39:   PORTB = value;
  3186  0E64  0856               	movf	dio_vid_set_port_value@value,w
  3187  0E65  0086               	movwf	6	;volatile
  3188                           
  3189                           ;dio.c: 40:   break;
  3190  0E66  2E89               	goto	l66
  3191  0E67                     l2150:	
  3192                           
  3193                           ;dio.c: 42:   PORTC = value;
  3194  0E67  0856               	movf	dio_vid_set_port_value@value,w
  3195  0E68  0087               	movwf	7	;volatile
  3196                           
  3197                           ;dio.c: 43:   break;
  3198  0E69  2E89               	goto	l66
  3199  0E6A                     l2152:	
  3200                           
  3201                           ;dio.c: 45:   PORTD = value;
  3202  0E6A  0856               	movf	dio_vid_set_port_value@value,w
  3203  0E6B  0088               	movwf	8	;volatile
  3204                           
  3205                           ;dio.c: 46:   break;
  3206  0E6C  2E89               	goto	l66
  3207  0E6D                     l2154:	
  3208                           
  3209                           ;dio.c: 48:   PORTE = value;
  3210  0E6D  0856               	movf	dio_vid_set_port_value@value,w
  3211  0E6E  0089               	movwf	9	;volatile
  3212                           
  3213                           ;dio.c: 49:   break;
  3214  0E6F  2E89               	goto	l66
  3215  0E70                     l2158:	
  3216  0E70  0859               	movf	dio_vid_set_port_value@portNumber,w
  3217  0E71  00D7               	movwf	??_dio_vid_set_port_value
  3218  0E72  01D8               	clrf	??_dio_vid_set_port_value+1
  3219                           
  3220                           ; Switch on 2 bytes has been partitioned into a top level switch of size 1, and 1 sub-sw
      +                          itches
  3221                           ; Switch size 1, requested type "simple"
  3222                           ; Number of cases is 1, Range of values is 0 to 0
  3223                           ; switch strategies available:
  3224                           ; Name         Instructions Cycles
  3225                           ; simple_byte            4     3 (average)
  3226                           ; direct_byte           11     8 (fixed)
  3227                           ; jumptable            260     6 (fixed)
  3228                           ;	Chosen strategy is simple_byte
  3229  0E73  0858               	movf	??_dio_vid_set_port_value+1,w
  3230  0E74  3A00               	xorlw	0	; case 0
  3231  0E75  1903               	skipnz
  3232  0E76  2E78               	goto	l3052
  3233  0E77  2E89               	goto	l66
  3234  0E78                     l3052:	
  3235                           
  3236                           ; Switch size 1, requested type "simple"
  3237                           ; Number of cases is 5, Range of values is 0 to 4
  3238                           ; switch strategies available:
  3239                           ; Name         Instructions Cycles
  3240                           ; simple_byte           16     9 (average)
  3241                           ; direct_byte           23     8 (fixed)
  3242                           ; jumptable            260     6 (fixed)
  3243                           ;	Chosen strategy is simple_byte
  3244  0E78  0857               	movf	??_dio_vid_set_port_value,w
  3245  0E79  3A00               	xorlw	0	; case 0
  3246  0E7A  1903               	skipnz
  3247  0E7B  2E61               	goto	l2146
  3248  0E7C  3A01               	xorlw	1	; case 1
  3249  0E7D  1903               	skipnz
  3250  0E7E  2E64               	goto	l2148
  3251  0E7F  3A03               	xorlw	3	; case 2
  3252  0E80  1903               	skipnz
  3253  0E81  2E67               	goto	l2150
  3254  0E82  3A01               	xorlw	1	; case 3
  3255  0E83  1903               	skipnz
  3256  0E84  2E6A               	goto	l2152
  3257  0E85  3A07               	xorlw	7	; case 4
  3258  0E86  1903               	skipnz
  3259  0E87  2E6D               	goto	l2154
  3260  0E88  2E89               	goto	l66
  3261  0E89                     l66:	
  3262  0E89  0008               	return
  3263  0E8A                     __end_of_dio_vid_set_port_value:	
  3264                           
  3265                           	psect	text12
  3266  0145                     __ptext12:	
  3267 ;; *************** function _dio_vid_set_pin_value *****************
  3268 ;; Defined at:
  3269 ;;		line 80 in file "dio.c"
  3270 ;; Parameters:    Size  Location     Type
  3271 ;;  portNumber      1    wreg     unsigned char 
  3272 ;;  index           1    6[BANK0 ] unsigned char 
  3273 ;;  value           1    7[BANK0 ] unsigned char 
  3274 ;; Auto vars:     Size  Location     Type
  3275 ;;  portNumber      1   10[BANK0 ] unsigned char 
  3276 ;; Return value:  Size  Location     Type
  3277 ;;                  1    wreg      void 
  3278 ;; Registers used:
  3279 ;;		wreg, fsr0l, fsr0h, status,2, status,0
  3280 ;; Tracked objects:
  3281 ;;		On entry : 0/0
  3282 ;;		On exit  : 0/0
  3283 ;;		Unchanged: 0/0
  3284 ;; Data sizes:     COMMON   BANK0   BANK1   BANK3   BANK2
  3285 ;;      Params:         0       2       0       0       0
  3286 ;;      Locals:         0       1       0       0       0
  3287 ;;      Temps:          0       2       0       0       0
  3288 ;;      Totals:         0       5       0       0       0
  3289 ;;Total ram usage:        5 bytes
  3290 ;; Hardware stack levels used:    1
  3291 ;; Hardware stack levels required when called:    3
  3292 ;; This function calls:
  3293 ;;		Nothing
  3294 ;; This function is called by:
  3295 ;;		_ssd_vid_update
  3296 ;;		_lcd_vid_write_charachter
  3297 ;;		_lcd_vid_write_command
  3298 ;;		_lcd_vid_init
  3299 ;;		_display_init
  3300 ;; This function uses a non-reentrant model
  3301 ;;
  3302                           
  3303                           
  3304                           ;psect for function _dio_vid_set_pin_value
  3305  0145                     _dio_vid_set_pin_value:	
  3306                           
  3307                           ;incstack = 0
  3308                           ; Regs used in _dio_vid_set_pin_value: [wreg-fsr0h+status,2+status,0]
  3309                           ;dio_vid_set_pin_value@portNumber stored from wreg
  3310  0145  1283               	bcf	3,5	;RP0=0, select bank0
  3311  0146  1303               	bcf	3,6	;RP1=0, select bank0
  3312  0147  00D7               	movwf	dio_vid_set_pin_value@portNumber
  3313  0148                     l2172:	
  3314                           
  3315                           ;dio.c: 81:  switch (portNumber) {
  3316  0148  2A0C               	goto	l2216
  3317  0149                     l2174:	
  3318                           
  3319                           ;dio.c: 83:   if (value == 1)
  3320  0149  0354               	decf	dio_vid_set_pin_value@value,w
  3321  014A  1D03               	btfss	3,2
  3322  014B  294D               	goto	u1331
  3323  014C  294E               	goto	u1330
  3324  014D                     u1331:	
  3325  014D  295C               	goto	l2178
  3326  014E                     u1330:	
  3327  014E                     l2176:	
  3328                           
  3329                           ;dio.c: 84:    PORTA|=(1<<index);
  3330  014E  3001               	movlw	1
  3331  014F  00D5               	movwf	??_dio_vid_set_pin_value
  3332  0150  0A53               	incf	dio_vid_set_pin_value@index,w
  3333  0151  2954               	goto	u1344
  3334  0152                     u1345:	
  3335  0152  1003               	clrc
  3336  0153  0DD5               	rlf	??_dio_vid_set_pin_value,f
  3337  0154                     u1344:	
  3338  0154  3EFF               	addlw	-1
  3339  0155  1D03               	skipz
  3340  0156  2952               	goto	u1345
  3341  0157  0855               	movf	??_dio_vid_set_pin_value,w
  3342  0158  00D6               	movwf	??_dio_vid_set_pin_value+1
  3343  0159  0856               	movf	??_dio_vid_set_pin_value+1,w
  3344  015A  0485               	iorwf	5,f	;volatile
  3345  015B  2A25               	goto	l104
  3346  015C                     l2178:	
  3347  015C  0854               	movf	dio_vid_set_pin_value@value,w
  3348  015D  1D03               	btfss	3,2
  3349  015E  2960               	goto	u1351
  3350  015F  2961               	goto	u1350
  3351  0160                     u1351:	
  3352  0160  2A25               	goto	l104
  3353  0161                     u1350:	
  3354  0161                     l2180:	
  3355                           
  3356                           ;dio.c: 86:    PORTA&=~(1<<index);
  3357  0161  3001               	movlw	1
  3358  0162  00D5               	movwf	??_dio_vid_set_pin_value
  3359  0163  0A53               	incf	dio_vid_set_pin_value@index,w
  3360  0164  2967               	goto	u1364
  3361  0165                     u1365:	
  3362  0165  1003               	clrc
  3363  0166  0DD5               	rlf	??_dio_vid_set_pin_value,f
  3364  0167                     u1364:	
  3365  0167  3EFF               	addlw	-1
  3366  0168  1D03               	skipz
  3367  0169  2965               	goto	u1365
  3368  016A  0855               	movf	??_dio_vid_set_pin_value,w
  3369  016B  3AFF               	xorlw	255
  3370  016C  00D6               	movwf	??_dio_vid_set_pin_value+1
  3371  016D  0856               	movf	??_dio_vid_set_pin_value+1,w
  3372  016E  0585               	andwf	5,f	;volatile
  3373  016F  2A25               	goto	l104
  3374  0170                     l2182:	
  3375                           
  3376                           ;dio.c: 89:   if (value == 1)
  3377  0170  0354               	decf	dio_vid_set_pin_value@value,w
  3378  0171  1D03               	btfss	3,2
  3379  0172  2974               	goto	u1371
  3380  0173  2975               	goto	u1370
  3381  0174                     u1371:	
  3382  0174  2983               	goto	l2186
  3383  0175                     u1370:	
  3384  0175                     l2184:	
  3385                           
  3386                           ;dio.c: 90:    PORTB|=(1<<index);
  3387  0175  3001               	movlw	1
  3388  0176  00D5               	movwf	??_dio_vid_set_pin_value
  3389  0177  0A53               	incf	dio_vid_set_pin_value@index,w
  3390  0178  297B               	goto	u1384
  3391  0179                     u1385:	
  3392  0179  1003               	clrc
  3393  017A  0DD5               	rlf	??_dio_vid_set_pin_value,f
  3394  017B                     u1384:	
  3395  017B  3EFF               	addlw	-1
  3396  017C  1D03               	skipz
  3397  017D  2979               	goto	u1385
  3398  017E  0855               	movf	??_dio_vid_set_pin_value,w
  3399  017F  00D6               	movwf	??_dio_vid_set_pin_value+1
  3400  0180  0856               	movf	??_dio_vid_set_pin_value+1,w
  3401  0181  0486               	iorwf	6,f	;volatile
  3402  0182  2A25               	goto	l104
  3403  0183                     l2186:	
  3404  0183  0854               	movf	dio_vid_set_pin_value@value,w
  3405  0184  1D03               	btfss	3,2
  3406  0185  2987               	goto	u1391
  3407  0186  2988               	goto	u1390
  3408  0187                     u1391:	
  3409  0187  2A25               	goto	l104
  3410  0188                     u1390:	
  3411  0188                     l2188:	
  3412                           
  3413                           ;dio.c: 92:    PORTB&=~(1<<index);
  3414  0188  3001               	movlw	1
  3415  0189  00D5               	movwf	??_dio_vid_set_pin_value
  3416  018A  0A53               	incf	dio_vid_set_pin_value@index,w
  3417  018B  298E               	goto	u1404
  3418  018C                     u1405:	
  3419  018C  1003               	clrc
  3420  018D  0DD5               	rlf	??_dio_vid_set_pin_value,f
  3421  018E                     u1404:	
  3422  018E  3EFF               	addlw	-1
  3423  018F  1D03               	skipz
  3424  0190  298C               	goto	u1405
  3425  0191  0855               	movf	??_dio_vid_set_pin_value,w
  3426  0192  3AFF               	xorlw	255
  3427  0193  00D6               	movwf	??_dio_vid_set_pin_value+1
  3428  0194  0856               	movf	??_dio_vid_set_pin_value+1,w
  3429  0195  0586               	andwf	6,f	;volatile
  3430  0196  2A25               	goto	l104
  3431  0197                     l2190:	
  3432                           
  3433                           ;dio.c: 95:   if (value == 1)
  3434  0197  0354               	decf	dio_vid_set_pin_value@value,w
  3435  0198  1D03               	btfss	3,2
  3436  0199  299B               	goto	u1411
  3437  019A  299C               	goto	u1410
  3438  019B                     u1411:	
  3439  019B  29AA               	goto	l2194
  3440  019C                     u1410:	
  3441  019C                     l2192:	
  3442                           
  3443                           ;dio.c: 96:    PORTC|=(1<<index);
  3444  019C  3001               	movlw	1
  3445  019D  00D5               	movwf	??_dio_vid_set_pin_value
  3446  019E  0A53               	incf	dio_vid_set_pin_value@index,w
  3447  019F  29A2               	goto	u1424
  3448  01A0                     u1425:	
  3449  01A0  1003               	clrc
  3450  01A1  0DD5               	rlf	??_dio_vid_set_pin_value,f
  3451  01A2                     u1424:	
  3452  01A2  3EFF               	addlw	-1
  3453  01A3  1D03               	skipz
  3454  01A4  29A0               	goto	u1425
  3455  01A5  0855               	movf	??_dio_vid_set_pin_value,w
  3456  01A6  00D6               	movwf	??_dio_vid_set_pin_value+1
  3457  01A7  0856               	movf	??_dio_vid_set_pin_value+1,w
  3458  01A8  0487               	iorwf	7,f	;volatile
  3459  01A9  2A25               	goto	l104
  3460  01AA                     l2194:	
  3461  01AA  0854               	movf	dio_vid_set_pin_value@value,w
  3462  01AB  1D03               	btfss	3,2
  3463  01AC  29AE               	goto	u1431
  3464  01AD  29AF               	goto	u1430
  3465  01AE                     u1431:	
  3466  01AE  2A25               	goto	l104
  3467  01AF                     u1430:	
  3468  01AF                     l2196:	
  3469                           
  3470                           ;dio.c: 98:    PORTC&=~(1<<index);
  3471  01AF  3001               	movlw	1
  3472  01B0  00D5               	movwf	??_dio_vid_set_pin_value
  3473  01B1  0A53               	incf	dio_vid_set_pin_value@index,w
  3474  01B2  29B5               	goto	u1444
  3475  01B3                     u1445:	
  3476  01B3  1003               	clrc
  3477  01B4  0DD5               	rlf	??_dio_vid_set_pin_value,f
  3478  01B5                     u1444:	
  3479  01B5  3EFF               	addlw	-1
  3480  01B6  1D03               	skipz
  3481  01B7  29B3               	goto	u1445
  3482  01B8  0855               	movf	??_dio_vid_set_pin_value,w
  3483  01B9  3AFF               	xorlw	255
  3484  01BA  00D6               	movwf	??_dio_vid_set_pin_value+1
  3485  01BB  0856               	movf	??_dio_vid_set_pin_value+1,w
  3486  01BC  0587               	andwf	7,f	;volatile
  3487  01BD  2A25               	goto	l104
  3488  01BE                     l2198:	
  3489                           
  3490                           ;dio.c: 101:   if (value == 1)
  3491  01BE  0354               	decf	dio_vid_set_pin_value@value,w
  3492  01BF  1D03               	btfss	3,2
  3493  01C0  29C2               	goto	u1451
  3494  01C1  29C3               	goto	u1450
  3495  01C2                     u1451:	
  3496  01C2  29D1               	goto	l2202
  3497  01C3                     u1450:	
  3498  01C3                     l2200:	
  3499                           
  3500                           ;dio.c: 102:    PORTD|=(1<<index);
  3501  01C3  3001               	movlw	1
  3502  01C4  00D5               	movwf	??_dio_vid_set_pin_value
  3503  01C5  0A53               	incf	dio_vid_set_pin_value@index,w
  3504  01C6  29C9               	goto	u1464
  3505  01C7                     u1465:	
  3506  01C7  1003               	clrc
  3507  01C8  0DD5               	rlf	??_dio_vid_set_pin_value,f
  3508  01C9                     u1464:	
  3509  01C9  3EFF               	addlw	-1
  3510  01CA  1D03               	skipz
  3511  01CB  29C7               	goto	u1465
  3512  01CC  0855               	movf	??_dio_vid_set_pin_value,w
  3513  01CD  00D6               	movwf	??_dio_vid_set_pin_value+1
  3514  01CE  0856               	movf	??_dio_vid_set_pin_value+1,w
  3515  01CF  0488               	iorwf	8,f	;volatile
  3516  01D0  2A25               	goto	l104
  3517  01D1                     l2202:	
  3518  01D1  0854               	movf	dio_vid_set_pin_value@value,w
  3519  01D2  1D03               	btfss	3,2
  3520  01D3  29D5               	goto	u1471
  3521  01D4  29D6               	goto	u1470
  3522  01D5                     u1471:	
  3523  01D5  2A25               	goto	l104
  3524  01D6                     u1470:	
  3525  01D6                     l2204:	
  3526                           
  3527                           ;dio.c: 104:    PORTD&=~(1<<index);
  3528  01D6  3001               	movlw	1
  3529  01D7  00D5               	movwf	??_dio_vid_set_pin_value
  3530  01D8  0A53               	incf	dio_vid_set_pin_value@index,w
  3531  01D9  29DC               	goto	u1484
  3532  01DA                     u1485:	
  3533  01DA  1003               	clrc
  3534  01DB  0DD5               	rlf	??_dio_vid_set_pin_value,f
  3535  01DC                     u1484:	
  3536  01DC  3EFF               	addlw	-1
  3537  01DD  1D03               	skipz
  3538  01DE  29DA               	goto	u1485
  3539  01DF  0855               	movf	??_dio_vid_set_pin_value,w
  3540  01E0  3AFF               	xorlw	255
  3541  01E1  00D6               	movwf	??_dio_vid_set_pin_value+1
  3542  01E2  0856               	movf	??_dio_vid_set_pin_value+1,w
  3543  01E3  0588               	andwf	8,f	;volatile
  3544  01E4  2A25               	goto	l104
  3545  01E5                     l2206:	
  3546                           
  3547                           ;dio.c: 107:   if (value == 1)
  3548  01E5  0354               	decf	dio_vid_set_pin_value@value,w
  3549  01E6  1D03               	btfss	3,2
  3550  01E7  29E9               	goto	u1491
  3551  01E8  29EA               	goto	u1490
  3552  01E9                     u1491:	
  3553  01E9  29F8               	goto	l2210
  3554  01EA                     u1490:	
  3555  01EA                     l2208:	
  3556                           
  3557                           ;dio.c: 108:    PORTE|=(1<<index);
  3558  01EA  3001               	movlw	1
  3559  01EB  00D5               	movwf	??_dio_vid_set_pin_value
  3560  01EC  0A53               	incf	dio_vid_set_pin_value@index,w
  3561  01ED  29F0               	goto	u1504
  3562  01EE                     u1505:	
  3563  01EE  1003               	clrc
  3564  01EF  0DD5               	rlf	??_dio_vid_set_pin_value,f
  3565  01F0                     u1504:	
  3566  01F0  3EFF               	addlw	-1
  3567  01F1  1D03               	skipz
  3568  01F2  29EE               	goto	u1505
  3569  01F3  0855               	movf	??_dio_vid_set_pin_value,w
  3570  01F4  00D6               	movwf	??_dio_vid_set_pin_value+1
  3571  01F5  0856               	movf	??_dio_vid_set_pin_value+1,w
  3572  01F6  0489               	iorwf	9,f	;volatile
  3573  01F7  2A25               	goto	l104
  3574  01F8                     l2210:	
  3575  01F8  0854               	movf	dio_vid_set_pin_value@value,w
  3576  01F9  1D03               	btfss	3,2
  3577  01FA  29FC               	goto	u1511
  3578  01FB  29FD               	goto	u1510
  3579  01FC                     u1511:	
  3580  01FC  2A25               	goto	l104
  3581  01FD                     u1510:	
  3582  01FD                     l2212:	
  3583                           
  3584                           ;dio.c: 110:    PORTE&=~(1<<index);
  3585  01FD  3001               	movlw	1
  3586  01FE  00D5               	movwf	??_dio_vid_set_pin_value
  3587  01FF  0A53               	incf	dio_vid_set_pin_value@index,w
  3588  0200  2A03               	goto	u1524
  3589  0201                     u1525:	
  3590  0201  1003               	clrc
  3591  0202  0DD5               	rlf	??_dio_vid_set_pin_value,f
  3592  0203                     u1524:	
  3593  0203  3EFF               	addlw	-1
  3594  0204  1D03               	skipz
  3595  0205  2A01               	goto	u1525
  3596  0206  0855               	movf	??_dio_vid_set_pin_value,w
  3597  0207  3AFF               	xorlw	255
  3598  0208  00D6               	movwf	??_dio_vid_set_pin_value+1
  3599  0209  0856               	movf	??_dio_vid_set_pin_value+1,w
  3600  020A  0589               	andwf	9,f	;volatile
  3601  020B  2A25               	goto	l104
  3602  020C                     l2216:	
  3603  020C  0857               	movf	dio_vid_set_pin_value@portNumber,w
  3604  020D  00D5               	movwf	??_dio_vid_set_pin_value
  3605  020E  01D6               	clrf	??_dio_vid_set_pin_value+1
  3606                           
  3607                           ; Switch on 2 bytes has been partitioned into a top level switch of size 1, and 1 sub-sw
      +                          itches
  3608                           ; Switch size 1, requested type "simple"
  3609                           ; Number of cases is 1, Range of values is 0 to 0
  3610                           ; switch strategies available:
  3611                           ; Name         Instructions Cycles
  3612                           ; simple_byte            4     3 (average)
  3613                           ; direct_byte           11     8 (fixed)
  3614                           ; jumptable            260     6 (fixed)
  3615                           ;	Chosen strategy is simple_byte
  3616  020F  0856               	movf	??_dio_vid_set_pin_value+1,w
  3617  0210  3A00               	xorlw	0	; case 0
  3618  0211  1903               	skipnz
  3619  0212  2A14               	goto	l3054
  3620  0213  2A25               	goto	l104
  3621  0214                     l3054:	
  3622                           
  3623                           ; Switch size 1, requested type "simple"
  3624                           ; Number of cases is 5, Range of values is 0 to 4
  3625                           ; switch strategies available:
  3626                           ; Name         Instructions Cycles
  3627                           ; simple_byte           16     9 (average)
  3628                           ; direct_byte           23     8 (fixed)
  3629                           ; jumptable            260     6 (fixed)
  3630                           ;	Chosen strategy is simple_byte
  3631  0214  0855               	movf	??_dio_vid_set_pin_value,w
  3632  0215  3A00               	xorlw	0	; case 0
  3633  0216  1903               	skipnz
  3634  0217  2949               	goto	l2174
  3635  0218  3A01               	xorlw	1	; case 1
  3636  0219  1903               	skipnz
  3637  021A  2970               	goto	l2182
  3638  021B  3A03               	xorlw	3	; case 2
  3639  021C  1903               	skipnz
  3640  021D  2997               	goto	l2190
  3641  021E  3A01               	xorlw	1	; case 3
  3642  021F  1903               	skipnz
  3643  0220  29BE               	goto	l2198
  3644  0221  3A07               	xorlw	7	; case 4
  3645  0222  1903               	skipnz
  3646  0223  29E5               	goto	l2206
  3647  0224  2A25               	goto	l104
  3648  0225                     l104:	
  3649  0225  0008               	return
  3650  0226                     __end_of_dio_vid_set_pin_value:	
  3651                           
  3652                           	psect	text13
  3653  0EF6                     __ptext13:	
  3654 ;; *************** function ___lwmod *****************
  3655 ;; Defined at:
  3656 ;;		line 5 in file "C:\Program Files (x86)\Microchip\xc8\v2.10\pic\sources\c90\common\lwmod.c"
  3657 ;; Parameters:    Size  Location     Type
  3658 ;;  divisor         2    6[BANK0 ] unsigned int 
  3659 ;;  dividend        2    8[BANK0 ] unsigned int 
  3660 ;; Auto vars:     Size  Location     Type
  3661 ;;  counter         1   11[BANK0 ] unsigned char 
  3662 ;; Return value:  Size  Location     Type
  3663 ;;                  2    6[BANK0 ] unsigned int 
  3664 ;; Registers used:
  3665 ;;		wreg, status,2, status,0
  3666 ;; Tracked objects:
  3667 ;;		On entry : 0/0
  3668 ;;		On exit  : 0/0
  3669 ;;		Unchanged: 0/0
  3670 ;; Data sizes:     COMMON   BANK0   BANK1   BANK3   BANK2
  3671 ;;      Params:         0       4       0       0       0
  3672 ;;      Locals:         0       1       0       0       0
  3673 ;;      Temps:          0       1       0       0       0
  3674 ;;      Totals:         0       6       0       0       0
  3675 ;;Total ram usage:        6 bytes
  3676 ;; Hardware stack levels used:    1
  3677 ;; Hardware stack levels required when called:    3
  3678 ;; This function calls:
  3679 ;;		Nothing
  3680 ;; This function is called by:
  3681 ;;		_ssd_vid_update
  3682 ;;		_display_update
  3683 ;; This function uses a non-reentrant model
  3684 ;;
  3685                           
  3686                           
  3687                           ;psect for function ___lwmod
  3688  0EF6                     ___lwmod:	
  3689  0EF6                     l2354:	
  3690                           ;incstack = 0
  3691                           ; Regs used in ___lwmod: [wreg+status,2+status,0]
  3692                           
  3693  0EF6  1283               	bcf	3,5	;RP0=0, select bank0
  3694  0EF7  1303               	bcf	3,6	;RP1=0, select bank0
  3695  0EF8  0853               	movf	___lwmod@divisor,w
  3696  0EF9  0454               	iorwf	___lwmod@divisor+1,w
  3697  0EFA  1903               	btfsc	3,2
  3698  0EFB  2EFD               	goto	u1651
  3699  0EFC  2EFE               	goto	u1650
  3700  0EFD                     u1651:	
  3701  0EFD  2F2D               	goto	l2372
  3702  0EFE                     u1650:	
  3703  0EFE                     l2356:	
  3704  0EFE  01D8               	clrf	___lwmod@counter
  3705  0EFF  0AD8               	incf	___lwmod@counter,f
  3706  0F00  2F0C               	goto	l2362
  3707  0F01                     l2358:	
  3708  0F01  3001               	movlw	1
  3709  0F02                     u1665:	
  3710  0F02  1003               	clrc
  3711  0F03  0DD3               	rlf	___lwmod@divisor,f
  3712  0F04  0DD4               	rlf	___lwmod@divisor+1,f
  3713  0F05  3EFF               	addlw	-1
  3714  0F06  1D03               	skipz
  3715  0F07  2F02               	goto	u1665
  3716  0F08                     l2360:	
  3717  0F08  3001               	movlw	1
  3718  0F09  00D7               	movwf	??___lwmod
  3719  0F0A  0857               	movf	??___lwmod,w
  3720  0F0B  07D8               	addwf	___lwmod@counter,f
  3721  0F0C                     l2362:	
  3722  0F0C  1FD4               	btfss	___lwmod@divisor+1,7
  3723  0F0D  2F0F               	goto	u1671
  3724  0F0E  2F10               	goto	u1670
  3725  0F0F                     u1671:	
  3726  0F0F  2F01               	goto	l2358
  3727  0F10                     u1670:	
  3728  0F10                     l2364:	
  3729  0F10  0854               	movf	___lwmod@divisor+1,w
  3730  0F11  0256               	subwf	___lwmod@dividend+1,w
  3731  0F12  1D03               	skipz
  3732  0F13  2F16               	goto	u1685
  3733  0F14  0853               	movf	___lwmod@divisor,w
  3734  0F15  0255               	subwf	___lwmod@dividend,w
  3735  0F16                     u1685:	
  3736  0F16  1C03               	skipc
  3737  0F17  2F19               	goto	u1681
  3738  0F18  2F1A               	goto	u1680
  3739  0F19                     u1681:	
  3740  0F19  2F20               	goto	l2368
  3741  0F1A                     u1680:	
  3742  0F1A                     l2366:	
  3743  0F1A  0853               	movf	___lwmod@divisor,w
  3744  0F1B  02D5               	subwf	___lwmod@dividend,f
  3745  0F1C  0854               	movf	___lwmod@divisor+1,w
  3746  0F1D  1C03               	skipc
  3747  0F1E  03D6               	decf	___lwmod@dividend+1,f
  3748  0F1F  02D6               	subwf	___lwmod@dividend+1,f
  3749  0F20                     l2368:	
  3750  0F20  3001               	movlw	1
  3751  0F21                     u1695:	
  3752  0F21  1003               	clrc
  3753  0F22  0CD4               	rrf	___lwmod@divisor+1,f
  3754  0F23  0CD3               	rrf	___lwmod@divisor,f
  3755  0F24  3EFF               	addlw	-1
  3756  0F25  1D03               	skipz
  3757  0F26  2F21               	goto	u1695
  3758  0F27                     l2370:	
  3759  0F27  3001               	movlw	1
  3760  0F28  02D8               	subwf	___lwmod@counter,f
  3761  0F29  1D03               	btfss	3,2
  3762  0F2A  2F2C               	goto	u1701
  3763  0F2B  2F2D               	goto	u1700
  3764  0F2C                     u1701:	
  3765  0F2C  2F10               	goto	l2364
  3766  0F2D                     u1700:	
  3767  0F2D                     l2372:	
  3768  0F2D  0856               	movf	___lwmod@dividend+1,w
  3769  0F2E  00D4               	movwf	?___lwmod+1
  3770  0F2F  0855               	movf	___lwmod@dividend,w
  3771  0F30  00D3               	movwf	?___lwmod
  3772  0F31                     l906:	
  3773  0F31  0008               	return
  3774  0F32                     __end_of___lwmod:	
  3775                           
  3776                           	psect	text14
  3777  0F70                     __ptext14:	
  3778 ;; *************** function ___lwdiv *****************
  3779 ;; Defined at:
  3780 ;;		line 5 in file "C:\Program Files (x86)\Microchip\xc8\v2.10\pic\sources\c90\common\lwdiv.c"
  3781 ;; Parameters:    Size  Location     Type
  3782 ;;  divisor         2    6[BANK0 ] unsigned int 
  3783 ;;  dividend        2    8[BANK0 ] unsigned int 
  3784 ;; Auto vars:     Size  Location     Type
  3785 ;;  quotient        2   11[BANK0 ] unsigned int 
  3786 ;;  counter         1   13[BANK0 ] unsigned char 
  3787 ;; Return value:  Size  Location     Type
  3788 ;;                  2    6[BANK0 ] unsigned int 
  3789 ;; Registers used:
  3790 ;;		wreg, status,2, status,0
  3791 ;; Tracked objects:
  3792 ;;		On entry : 0/0
  3793 ;;		On exit  : 0/0
  3794 ;;		Unchanged: 0/0
  3795 ;; Data sizes:     COMMON   BANK0   BANK1   BANK3   BANK2
  3796 ;;      Params:         0       4       0       0       0
  3797 ;;      Locals:         0       3       0       0       0
  3798 ;;      Temps:          0       1       0       0       0
  3799 ;;      Totals:         0       8       0       0       0
  3800 ;;Total ram usage:        8 bytes
  3801 ;; Hardware stack levels used:    1
  3802 ;; Hardware stack levels required when called:    3
  3803 ;; This function calls:
  3804 ;;		Nothing
  3805 ;; This function is called by:
  3806 ;;		_ssd_vid_update
  3807 ;; This function uses a non-reentrant model
  3808 ;;
  3809                           
  3810                           
  3811                           ;psect for function ___lwdiv
  3812  0F70                     ___lwdiv:	
  3813  0F70                     l2328:	
  3814                           ;incstack = 0
  3815                           ; Regs used in ___lwdiv: [wreg+status,2+status,0]
  3816                           
  3817  0F70  1283               	bcf	3,5	;RP0=0, select bank0
  3818  0F71  1303               	bcf	3,6	;RP1=0, select bank0
  3819  0F72  01D8               	clrf	___lwdiv@quotient
  3820  0F73  01D9               	clrf	___lwdiv@quotient+1
  3821  0F74                     l2330:	
  3822  0F74  0853               	movf	___lwdiv@divisor,w
  3823  0F75  0454               	iorwf	___lwdiv@divisor+1,w
  3824  0F76  1903               	btfsc	3,2
  3825  0F77  2F79               	goto	u1581
  3826  0F78  2F7A               	goto	u1580
  3827  0F79                     u1581:	
  3828  0F79  2FB1               	goto	l2350
  3829  0F7A                     u1580:	
  3830  0F7A                     l2332:	
  3831  0F7A  01DA               	clrf	___lwdiv@counter
  3832  0F7B  0ADA               	incf	___lwdiv@counter,f
  3833  0F7C  2F88               	goto	l2338
  3834  0F7D                     l2334:	
  3835  0F7D  3001               	movlw	1
  3836  0F7E                     u1595:	
  3837  0F7E  1003               	clrc
  3838  0F7F  0DD3               	rlf	___lwdiv@divisor,f
  3839  0F80  0DD4               	rlf	___lwdiv@divisor+1,f
  3840  0F81  3EFF               	addlw	-1
  3841  0F82  1D03               	skipz
  3842  0F83  2F7E               	goto	u1595
  3843  0F84                     l2336:	
  3844  0F84  3001               	movlw	1
  3845  0F85  00D7               	movwf	??___lwdiv
  3846  0F86  0857               	movf	??___lwdiv,w
  3847  0F87  07DA               	addwf	___lwdiv@counter,f
  3848  0F88                     l2338:	
  3849  0F88  1FD4               	btfss	___lwdiv@divisor+1,7
  3850  0F89  2F8B               	goto	u1601
  3851  0F8A  2F8C               	goto	u1600
  3852  0F8B                     u1601:	
  3853  0F8B  2F7D               	goto	l2334
  3854  0F8C                     u1600:	
  3855  0F8C                     l2340:	
  3856  0F8C  3001               	movlw	1
  3857  0F8D                     u1615:	
  3858  0F8D  1003               	clrc
  3859  0F8E  0DD8               	rlf	___lwdiv@quotient,f
  3860  0F8F  0DD9               	rlf	___lwdiv@quotient+1,f
  3861  0F90  3EFF               	addlw	-1
  3862  0F91  1D03               	skipz
  3863  0F92  2F8D               	goto	u1615
  3864  0F93  0854               	movf	___lwdiv@divisor+1,w
  3865  0F94  0256               	subwf	___lwdiv@dividend+1,w
  3866  0F95  1D03               	skipz
  3867  0F96  2F99               	goto	u1625
  3868  0F97  0853               	movf	___lwdiv@divisor,w
  3869  0F98  0255               	subwf	___lwdiv@dividend,w
  3870  0F99                     u1625:	
  3871  0F99  1C03               	skipc
  3872  0F9A  2F9C               	goto	u1621
  3873  0F9B  2F9D               	goto	u1620
  3874  0F9C                     u1621:	
  3875  0F9C  2FA4               	goto	l2346
  3876  0F9D                     u1620:	
  3877  0F9D                     l2342:	
  3878  0F9D  0853               	movf	___lwdiv@divisor,w
  3879  0F9E  02D5               	subwf	___lwdiv@dividend,f
  3880  0F9F  0854               	movf	___lwdiv@divisor+1,w
  3881  0FA0  1C03               	skipc
  3882  0FA1  03D6               	decf	___lwdiv@dividend+1,f
  3883  0FA2  02D6               	subwf	___lwdiv@dividend+1,f
  3884  0FA3                     l2344:	
  3885  0FA3  1458               	bsf	___lwdiv@quotient,0
  3886  0FA4                     l2346:	
  3887  0FA4  3001               	movlw	1
  3888  0FA5                     u1635:	
  3889  0FA5  1003               	clrc
  3890  0FA6  0CD4               	rrf	___lwdiv@divisor+1,f
  3891  0FA7  0CD3               	rrf	___lwdiv@divisor,f
  3892  0FA8  3EFF               	addlw	-1
  3893  0FA9  1D03               	skipz
  3894  0FAA  2FA5               	goto	u1635
  3895  0FAB                     l2348:	
  3896  0FAB  3001               	movlw	1
  3897  0FAC  02DA               	subwf	___lwdiv@counter,f
  3898  0FAD  1D03               	btfss	3,2
  3899  0FAE  2FB0               	goto	u1641
  3900  0FAF  2FB1               	goto	u1640
  3901  0FB0                     u1641:	
  3902  0FB0  2F8C               	goto	l2340
  3903  0FB1                     u1640:	
  3904  0FB1                     l2350:	
  3905  0FB1  0859               	movf	___lwdiv@quotient+1,w
  3906  0FB2  00D4               	movwf	?___lwdiv+1
  3907  0FB3  0858               	movf	___lwdiv@quotient,w
  3908  0FB4  00D3               	movwf	?___lwdiv
  3909  0FB5                     l896:	
  3910  0FB5  0008               	return
  3911  0FB6                     __end_of___lwdiv:	
  3912                           
  3913                           	psect	text15
  3914  057C                     __ptext15:	
  3915 ;; *************** function _sch_vid_delete_task *****************
  3916 ;; Defined at:
  3917 ;;		line 89 in file "scheduler.c"
  3918 ;; Parameters:    Size  Location     Type
  3919 ;;  index           1    wreg     unsigned char 
  3920 ;; Auto vars:     Size  Location     Type
  3921 ;;  index           1   11[BANK0 ] unsigned char 
  3922 ;; Return value:  Size  Location     Type
  3923 ;;                  1    wreg      unsigned char 
  3924 ;; Registers used:
  3925 ;;		wreg, fsr0l, fsr0h, status,2, status,0, pclath, cstack
  3926 ;; Tracked objects:
  3927 ;;		On entry : 0/0
  3928 ;;		On exit  : 0/0
  3929 ;;		Unchanged: 0/0
  3930 ;; Data sizes:     COMMON   BANK0   BANK1   BANK3   BANK2
  3931 ;;      Params:         0       0       0       0       0
  3932 ;;      Locals:         0       1       0       0       0
  3933 ;;      Temps:          0       1       0       0       0
  3934 ;;      Totals:         0       2       0       0       0
  3935 ;;Total ram usage:        2 bytes
  3936 ;; Hardware stack levels used:    1
  3937 ;; Hardware stack levels required when called:    4
  3938 ;; This function calls:
  3939 ;;		___bmul
  3940 ;; This function is called by:
  3941 ;;		_sch_vid_init
  3942 ;;		_sch_vid_dispatch_tasks
  3943 ;; This function uses a non-reentrant model
  3944 ;;
  3945                           
  3946                           
  3947                           ;psect for function _sch_vid_delete_task
  3948  057C                     _sch_vid_delete_task:	
  3949                           
  3950                           ;incstack = 0
  3951                           ; Regs used in _sch_vid_delete_task: [wreg-fsr0h+status,2+status,0+pclath+cstack]
  3952                           ;sch_vid_delete_task@index stored from wreg
  3953  057C  1283               	bcf	3,5	;RP0=0, select bank0
  3954  057D  1303               	bcf	3,6	;RP1=0, select bank0
  3955  057E  00D8               	movwf	sch_vid_delete_task@index
  3956  057F                     l2464:	
  3957                           
  3958                           ;scheduler.c: 90:     if (index < 3) {
  3959  057F  3003               	movlw	3
  3960  0580  0258               	subwf	sch_vid_delete_task@index,w
  3961  0581  1803               	skipnc
  3962  0582  2D84               	goto	u1931
  3963  0583  2D85               	goto	u1930
  3964  0584                     u1931:	
  3965  0584  2DE1               	goto	l267
  3966  0585                     u1930:	
  3967  0585                     l2466:	
  3968                           
  3969                           ;scheduler.c: 91:         sch_tasks[index].taskFunction = 0x0000;
  3970  0585  300D               	movlw	13
  3971  0586  00D7               	movwf	??_sch_vid_delete_task
  3972  0587  0857               	movf	??_sch_vid_delete_task,w
  3973  0588  00D3               	movwf	___bmul@multiplicand
  3974  0589  0858               	movf	sch_vid_delete_task@index,w
  3975  058A  120A  158A  2571  120A  118A  	fcall	___bmul
  3976  058F  3E20               	addlw	(low (_sch_tasks| 0))& (0+255)
  3977  0590  0084               	movwf	4
  3978  0591  1383               	bcf	3,7	;select IRP bank0
  3979  0592  0180               	clrf	0
  3980                           
  3981                           ;scheduler.c: 92:         sch_tasks[index].delay = 0;
  3982  0593  300D               	movlw	13
  3983  0594  1283               	bcf	3,5	;RP0=0, select bank0
  3984  0595  1303               	bcf	3,6	;RP1=0, select bank0
  3985  0596  00D7               	movwf	??_sch_vid_delete_task
  3986  0597  0857               	movf	??_sch_vid_delete_task,w
  3987  0598  00D3               	movwf	___bmul@multiplicand
  3988  0599  0858               	movf	sch_vid_delete_task@index,w
  3989  059A  120A  158A  2571  120A  118A  	fcall	___bmul
  3990  059F  3E21               	addlw	(low ((_sch_tasks| 0+1)))& (0+255)
  3991  05A0  0084               	movwf	4
  3992  05A1  3000               	movlw	0
  3993  05A2  1383               	bcf	3,7	;select IRP bank0
  3994  05A3  0080               	movwf	0
  3995  05A4  0A84               	incf	4,f
  3996  05A5  3000               	movlw	0
  3997  05A6  0080               	movwf	0
  3998  05A7  0A84               	incf	4,f
  3999  05A8  3000               	movlw	0
  4000  05A9  0080               	movwf	0
  4001  05AA  0A84               	incf	4,f
  4002  05AB  3000               	movlw	0
  4003  05AC  0080               	movwf	0
  4004                           
  4005                           ;scheduler.c: 93:         sch_tasks[index].period = 0;
  4006  05AD  300D               	movlw	13
  4007  05AE  1283               	bcf	3,5	;RP0=0, select bank0
  4008  05AF  1303               	bcf	3,6	;RP1=0, select bank0
  4009  05B0  00D7               	movwf	??_sch_vid_delete_task
  4010  05B1  0857               	movf	??_sch_vid_delete_task,w
  4011  05B2  00D3               	movwf	___bmul@multiplicand
  4012  05B3  0858               	movf	sch_vid_delete_task@index,w
  4013  05B4  120A  158A  2571  120A  118A  	fcall	___bmul
  4014  05B9  3E25               	addlw	(low ((_sch_tasks| 0+5)))& (0+255)
  4015  05BA  0084               	movwf	4
  4016  05BB  3000               	movlw	0
  4017  05BC  1383               	bcf	3,7	;select IRP bank0
  4018  05BD  0080               	movwf	0
  4019  05BE  0A84               	incf	4,f
  4020  05BF  3000               	movlw	0
  4021  05C0  0080               	movwf	0
  4022  05C1  0A84               	incf	4,f
  4023  05C2  3000               	movlw	0
  4024  05C3  0080               	movwf	0
  4025  05C4  0A84               	incf	4,f
  4026  05C5  3000               	movlw	0
  4027  05C6  0080               	movwf	0
  4028                           
  4029                           ;scheduler.c: 94:         sch_tasks[index].runMe = 0;
  4030  05C7  300D               	movlw	13
  4031  05C8  1283               	bcf	3,5	;RP0=0, select bank0
  4032  05C9  1303               	bcf	3,6	;RP1=0, select bank0
  4033  05CA  00D7               	movwf	??_sch_vid_delete_task
  4034  05CB  0857               	movf	??_sch_vid_delete_task,w
  4035  05CC  00D3               	movwf	___bmul@multiplicand
  4036  05CD  0858               	movf	sch_vid_delete_task@index,w
  4037  05CE  120A  158A  2571  120A  118A  	fcall	___bmul
  4038  05D3  3E29               	addlw	(low ((_sch_tasks| 0+9)))& (0+255)
  4039  05D4  0084               	movwf	4
  4040  05D5  3000               	movlw	0
  4041  05D6  1383               	bcf	3,7	;select IRP bank0
  4042  05D7  0080               	movwf	0
  4043  05D8  0A84               	incf	4,f
  4044  05D9  3000               	movlw	0
  4045  05DA  0080               	movwf	0
  4046  05DB  0A84               	incf	4,f
  4047  05DC  3000               	movlw	0
  4048  05DD  0080               	movwf	0
  4049  05DE  0A84               	incf	4,f
  4050  05DF  3000               	movlw	0
  4051  05E0  0080               	movwf	0
  4052  05E1                     l267:	
  4053  05E1  0008               	return
  4054  05E2                     __end_of_sch_vid_delete_task:	
  4055                           
  4056                           	psect	text16
  4057  0CC5                     __ptext16:	
  4058 ;; *************** function _ssd_u8_get_state *****************
  4059 ;; Defined at:
  4060 ;;		line 62 in file "ssd.c"
  4061 ;; Parameters:    Size  Location     Type
  4062 ;;		None
  4063 ;; Auto vars:     Size  Location     Type
  4064 ;;		None
  4065 ;; Return value:  Size  Location     Type
  4066 ;;                  1    wreg      unsigned char 
  4067 ;; Registers used:
  4068 ;;		wreg
  4069 ;; Tracked objects:
  4070 ;;		On entry : 0/0
  4071 ;;		On exit  : 0/0
  4072 ;;		Unchanged: 0/0
  4073 ;; Data sizes:     COMMON   BANK0   BANK1   BANK3   BANK2
  4074 ;;      Params:         0       0       0       0       0
  4075 ;;      Locals:         0       0       0       0       0
  4076 ;;      Temps:          0       0       0       0       0
  4077 ;;      Totals:         0       0       0       0       0
  4078 ;;Total ram usage:        0 bytes
  4079 ;; Hardware stack levels used:    1
  4080 ;; Hardware stack levels required when called:    3
  4081 ;; This function calls:
  4082 ;;		Nothing
  4083 ;; This function is called by:
  4084 ;;		_display_vid_blink
  4085 ;; This function uses a non-reentrant model
  4086 ;;
  4087                           
  4088                           
  4089                           ;psect for function _ssd_u8_get_state
  4090  0CC5                     _ssd_u8_get_state:	
  4091  0CC5                     l2282:	
  4092                           ;incstack = 0
  4093                           ; Regs used in _ssd_u8_get_state: [wreg]
  4094                           
  4095                           
  4096                           ;ssd.c: 63:     return ssdState;
  4097  0CC5  1283               	bcf	3,5	;RP0=0, select bank0
  4098  0CC6  1303               	bcf	3,6	;RP1=0, select bank0
  4099  0CC7  0866               	movf	_ssdState,w
  4100  0CC8                     l204:	
  4101  0CC8  0008               	return
  4102  0CC9                     __end_of_ssd_u8_get_state:	
  4103                           
  4104                           	psect	text17
  4105  0E8A                     __ptext17:	
  4106 ;; *************** function _eeprom_external_vid_write *****************
  4107 ;; Defined at:
  4108 ;;		line 11 in file "eeprom_external.c"
  4109 ;; Parameters:    Size  Location     Type
  4110 ;;  address         1    wreg     unsigned char 
  4111 ;;  data            1    8[BANK0 ] unsigned char 
  4112 ;; Auto vars:     Size  Location     Type
  4113 ;;  address         1    9[BANK0 ] unsigned char 
  4114 ;; Return value:  Size  Location     Type
  4115 ;;                  1    wreg      void 
  4116 ;; Registers used:
  4117 ;;		wreg, status,2, status,0, pclath, cstack
  4118 ;; Tracked objects:
  4119 ;;		On entry : 0/0
  4120 ;;		On exit  : 0/0
  4121 ;;		Unchanged: 0/0
  4122 ;; Data sizes:     COMMON   BANK0   BANK1   BANK3   BANK2
  4123 ;;      Params:         0       1       0       0       0
  4124 ;;      Locals:         0       1       0       0       0
  4125 ;;      Temps:          0       0       0       0       0
  4126 ;;      Totals:         0       2       0       0       0
  4127 ;;Total ram usage:        2 bytes
  4128 ;; Hardware stack levels used:    1
  4129 ;; Hardware stack levels required when called:    5
  4130 ;; This function calls:
  4131 ;;		_i2c_u8_master_write_byte
  4132 ;;		_i2c_u8_master_write_slave_address_with_write_req
  4133 ;;		_i2c_vid_restart
  4134 ;;		_i2c_vid_start
  4135 ;;		_i2c_vid_stop
  4136 ;; This function is called by:
  4137 ;;		_counter_vid_update
  4138 ;; This function uses a non-reentrant model
  4139 ;;
  4140                           
  4141                           
  4142                           ;psect for function _eeprom_external_vid_write
  4143  0E8A                     _eeprom_external_vid_write:	
  4144                           
  4145                           ;incstack = 0
  4146                           ; Regs used in _eeprom_external_vid_write: [wreg+status,2+status,0+pclath+cstack]
  4147                           ;eeprom_external_vid_write@address stored from wreg
  4148  0E8A  1283               	bcf	3,5	;RP0=0, select bank0
  4149  0E8B  1303               	bcf	3,6	;RP1=0, select bank0
  4150  0E8C  00D6               	movwf	eeprom_external_vid_write@address
  4151  0E8D                     l2308:	
  4152                           
  4153                           ;eeprom_external.c: 12:     i2c_vid_start();
  4154  0E8D  120A  158A  24EA  120A  158A  	fcall	_i2c_vid_start
  4155                           
  4156                           ;eeprom_external.c: 13:     while(i2c_u8_master_write_slave_address_with_write_req(0x50)
      +                          )
  4157  0E92  2E98               	goto	l459
  4158  0E93                     l2310:	
  4159                           
  4160                           ;eeprom_external.c: 14:     i2c_vid_restart();
  4161  0E93  120A  158A  24E1  120A  158A  	fcall	_i2c_vid_restart
  4162  0E98                     l459:	
  4163                           
  4164                           ;eeprom_external.c: 13:     while(i2c_u8_master_write_slave_address_with_write_req(0x50)
      +                          )
  4165  0E98  3050               	movlw	80
  4166  0E99  120A  158A  2588  120A  158A  	fcall	_i2c_u8_master_write_slave_address_with_write_req
  4167  0E9E  3A00               	xorlw	0
  4168  0E9F  1D03               	skipz
  4169  0EA0  2EA2               	goto	u1551
  4170  0EA1  2EA3               	goto	u1550
  4171  0EA2                     u1551:	
  4172  0EA2  2E93               	goto	l2310
  4173  0EA3                     u1550:	
  4174  0EA3                     l2312:	
  4175                           
  4176                           ;eeprom_external.c: 15:     i2c_u8_master_write_byte(address >> 8);
  4177  0EA3  3000               	movlw	0
  4178  0EA4  120A  158A  2520  120A  158A  	fcall	_i2c_u8_master_write_byte
  4179                           
  4180                           ;eeprom_external.c: 16:     i2c_u8_master_write_byte((u8) address);
  4181  0EA9  1283               	bcf	3,5	;RP0=0, select bank0
  4182  0EAA  1303               	bcf	3,6	;RP1=0, select bank0
  4183  0EAB  0856               	movf	eeprom_external_vid_write@address,w
  4184  0EAC  120A  158A  2520  120A  158A  	fcall	_i2c_u8_master_write_byte
  4185                           
  4186                           ;eeprom_external.c: 17:     i2c_u8_master_write_byte(data);
  4187  0EB1  1283               	bcf	3,5	;RP0=0, select bank0
  4188  0EB2  1303               	bcf	3,6	;RP1=0, select bank0
  4189  0EB3  0855               	movf	eeprom_external_vid_write@data,w
  4190  0EB4  120A  158A  2520  120A  158A  	fcall	_i2c_u8_master_write_byte
  4191                           
  4192                           ;eeprom_external.c: 18:     i2c_vid_stop();
  4193  0EB9  120A  158A  24F3  120A  158A  	fcall	_i2c_vid_stop
  4194  0EBE                     l462:	
  4195  0EBE  0008               	return
  4196  0EBF                     __end_of_eeprom_external_vid_write:	
  4197                           
  4198                           	psect	text18
  4199  0DA1                     __ptext18:	
  4200 ;; *************** function _dio_u8_read_pin_value *****************
  4201 ;; Defined at:
  4202 ;;		line 75 in file "dio.c"
  4203 ;; Parameters:    Size  Location     Type
  4204 ;;  portNumber      1    wreg     unsigned char 
  4205 ;;  index           1    9[BANK0 ] unsigned char 
  4206 ;; Auto vars:     Size  Location     Type
  4207 ;;  portNumber      1   11[BANK0 ] unsigned char 
  4208 ;;  port            1   12[BANK0 ] unsigned char 
  4209 ;; Return value:  Size  Location     Type
  4210 ;;                  1    wreg      unsigned char 
  4211 ;; Registers used:
  4212 ;;		wreg, fsr0l, fsr0h, status,2, status,0, pclath, cstack
  4213 ;; Tracked objects:
  4214 ;;		On entry : 0/0
  4215 ;;		On exit  : 0/0
  4216 ;;		Unchanged: 0/0
  4217 ;; Data sizes:     COMMON   BANK0   BANK1   BANK3   BANK2
  4218 ;;      Params:         0       1       0       0       0
  4219 ;;      Locals:         0       2       0       0       0
  4220 ;;      Temps:          0       1       0       0       0
  4221 ;;      Totals:         0       4       0       0       0
  4222 ;;Total ram usage:        4 bytes
  4223 ;; Hardware stack levels used:    1
  4224 ;; Hardware stack levels required when called:    4
  4225 ;; This function calls:
  4226 ;;		_dio_u8_read_port_value
  4227 ;; This function is called by:
  4228 ;;		_ssd_vid_update
  4229 ;;		_counter_vid_update
  4230 ;; This function uses a non-reentrant model
  4231 ;;
  4232                           
  4233                           
  4234                           ;psect for function _dio_u8_read_pin_value
  4235  0DA1                     _dio_u8_read_pin_value:	
  4236                           
  4237                           ;incstack = 0
  4238                           ; Regs used in _dio_u8_read_pin_value: [wreg-fsr0h+status,2+status,0+pclath+cstack]
  4239                           ;dio_u8_read_pin_value@portNumber stored from wreg
  4240  0DA1  1283               	bcf	3,5	;RP0=0, select bank0
  4241  0DA2  1303               	bcf	3,6	;RP1=0, select bank0
  4242  0DA3  00D8               	movwf	dio_u8_read_pin_value@portNumber
  4243  0DA4                     l2166:	
  4244                           
  4245                           ;dio.c: 76:  u8 port = dio_u8_read_port_value(portNumber);
  4246  0DA4  0858               	movf	dio_u8_read_pin_value@portNumber,w
  4247  0DA5  120A  158A  25DF  120A  158A  	fcall	_dio_u8_read_port_value
  4248  0DAA  1283               	bcf	3,5	;RP0=0, select bank0
  4249  0DAB  1303               	bcf	3,6	;RP1=0, select bank0
  4250  0DAC  00D7               	movwf	??_dio_u8_read_pin_value
  4251  0DAD  0857               	movf	??_dio_u8_read_pin_value,w
  4252  0DAE  00D9               	movwf	dio_u8_read_pin_value@port
  4253  0DAF                     l2168:	
  4254                           
  4255                           ;dio.c: 77:  return ((port>>index)&1);
  4256  0DAF  0859               	movf	dio_u8_read_pin_value@port,w
  4257  0DB0  00D7               	movwf	??_dio_u8_read_pin_value
  4258  0DB1  0A56               	incf	dio_u8_read_pin_value@index,w
  4259  0DB2  2DB5               	goto	u1324
  4260  0DB3                     u1325:	
  4261  0DB3  1003               	clrc
  4262  0DB4  0CD7               	rrf	??_dio_u8_read_pin_value,f
  4263  0DB5                     u1324:	
  4264  0DB5  3EFF               	addlw	-1
  4265  0DB6  1D03               	skipz
  4266  0DB7  2DB3               	goto	u1325
  4267  0DB8  0857               	movf	??_dio_u8_read_pin_value,w
  4268  0DB9  3901               	andlw	1
  4269  0DBA                     l79:	
  4270  0DBA  0008               	return
  4271  0DBB                     __end_of_dio_u8_read_pin_value:	
  4272                           
  4273                           	psect	text19
  4274  0DDF                     __ptext19:	
  4275 ;; *************** function _dio_u8_read_port_value *****************
  4276 ;; Defined at:
  4277 ;;		line 53 in file "dio.c"
  4278 ;; Parameters:    Size  Location     Type
  4279 ;;  portNumber      1    wreg     unsigned char 
  4280 ;; Auto vars:     Size  Location     Type
  4281 ;;  portNumber      1    8[BANK0 ] unsigned char 
  4282 ;; Return value:  Size  Location     Type
  4283 ;;                  1    wreg      unsigned char 
  4284 ;; Registers used:
  4285 ;;		wreg, fsr0l, fsr0h, status,2, status,0
  4286 ;; Tracked objects:
  4287 ;;		On entry : 0/0
  4288 ;;		On exit  : 0/0
  4289 ;;		Unchanged: 0/0
  4290 ;; Data sizes:     COMMON   BANK0   BANK1   BANK3   BANK2
  4291 ;;      Params:         0       0       0       0       0
  4292 ;;      Locals:         0       1       0       0       0
  4293 ;;      Temps:          0       2       0       0       0
  4294 ;;      Totals:         0       3       0       0       0
  4295 ;;Total ram usage:        3 bytes
  4296 ;; Hardware stack levels used:    1
  4297 ;; Hardware stack levels required when called:    3
  4298 ;; This function calls:
  4299 ;;		Nothing
  4300 ;; This function is called by:
  4301 ;;		_dio_u8_read_pin_value
  4302 ;; This function uses a non-reentrant model
  4303 ;;
  4304                           
  4305                           
  4306                           ;psect for function _dio_u8_read_port_value
  4307  0DDF                     _dio_u8_read_port_value:	
  4308                           
  4309                           ;incstack = 0
  4310                           ; Regs used in _dio_u8_read_port_value: [wreg-fsr0h+status,2+status,0]
  4311                           ;dio_u8_read_port_value@portNumber stored from wreg
  4312  0DDF  1283               	bcf	3,5	;RP0=0, select bank0
  4313  0DE0  1303               	bcf	3,6	;RP1=0, select bank0
  4314  0DE1  00D5               	movwf	dio_u8_read_port_value@portNumber
  4315  0DE2                     l2074:	
  4316                           
  4317                           ;dio.c: 54:  switch (portNumber) {
  4318  0DE2  2DED               	goto	l2108
  4319  0DE3                     l2076:	
  4320                           
  4321                           ;dio.c: 56:   return PORTA;
  4322  0DE3  0805               	movf	5,w	;volatile
  4323  0DE4  2E07               	goto	l71
  4324  0DE5                     l2082:	
  4325                           
  4326                           ;dio.c: 59:   return PORTB;
  4327  0DE5  0806               	movf	6,w	;volatile
  4328  0DE6  2E07               	goto	l71
  4329  0DE7                     l2088:	
  4330                           
  4331                           ;dio.c: 62:   return PORTC;
  4332  0DE7  0807               	movf	7,w	;volatile
  4333  0DE8  2E07               	goto	l71
  4334  0DE9                     l2094:	
  4335                           
  4336                           ;dio.c: 65:   return PORTD;
  4337  0DE9  0808               	movf	8,w	;volatile
  4338  0DEA  2E07               	goto	l71
  4339  0DEB                     l2100:	
  4340                           
  4341                           ;dio.c: 68:   return PORTE;
  4342  0DEB  0809               	movf	9,w	;volatile
  4343  0DEC  2E07               	goto	l71
  4344  0DED                     l2108:	
  4345  0DED  0855               	movf	dio_u8_read_port_value@portNumber,w
  4346  0DEE  00D3               	movwf	??_dio_u8_read_port_value
  4347  0DEF  01D4               	clrf	??_dio_u8_read_port_value+1
  4348                           
  4349                           ; Switch on 2 bytes has been partitioned into a top level switch of size 1, and 1 sub-sw
      +                          itches
  4350                           ; Switch size 1, requested type "simple"
  4351                           ; Number of cases is 1, Range of values is 0 to 0
  4352                           ; switch strategies available:
  4353                           ; Name         Instructions Cycles
  4354                           ; simple_byte            4     3 (average)
  4355                           ; direct_byte           11     8 (fixed)
  4356                           ; jumptable            260     6 (fixed)
  4357                           ;	Chosen strategy is simple_byte
  4358  0DF0  0854               	movf	??_dio_u8_read_port_value+1,w
  4359  0DF1  3A00               	xorlw	0	; case 0
  4360  0DF2  1903               	skipnz
  4361  0DF3  2DF5               	goto	l3056
  4362  0DF4  2E06               	goto	l2110
  4363  0DF5                     l3056:	
  4364                           
  4365                           ; Switch size 1, requested type "simple"
  4366                           ; Number of cases is 5, Range of values is 0 to 4
  4367                           ; switch strategies available:
  4368                           ; Name         Instructions Cycles
  4369                           ; simple_byte           16     9 (average)
  4370                           ; direct_byte           23     8 (fixed)
  4371                           ; jumptable            260     6 (fixed)
  4372                           ;	Chosen strategy is simple_byte
  4373  0DF5  0853               	movf	??_dio_u8_read_port_value,w
  4374  0DF6  3A00               	xorlw	0	; case 0
  4375  0DF7  1903               	skipnz
  4376  0DF8  2DE3               	goto	l2076
  4377  0DF9  3A01               	xorlw	1	; case 1
  4378  0DFA  1903               	skipnz
  4379  0DFB  2DE5               	goto	l2082
  4380  0DFC  3A03               	xorlw	3	; case 2
  4381  0DFD  1903               	skipnz
  4382  0DFE  2DE7               	goto	l2088
  4383  0DFF  3A01               	xorlw	1	; case 3
  4384  0E00  1903               	skipnz
  4385  0E01  2DE9               	goto	l2094
  4386  0E02  3A07               	xorlw	7	; case 4
  4387  0E03  1903               	skipnz
  4388  0E04  2DEB               	goto	l2100
  4389  0E05  2E06               	goto	l2110
  4390  0E06                     l2110:	
  4391                           
  4392                           ;dio.c: 71:  return 0;
  4393  0E06  3000               	movlw	0
  4394  0E07                     l71:	
  4395  0E07  0008               	return
  4396  0E08                     __end_of_dio_u8_read_port_value:	
  4397                           
  4398                           	psect	text20
  4399  04F0                     __ptext20:	
  4400 ;; *************** function _sch_u8_add_task *****************
  4401 ;; Defined at:
  4402 ;;		line 49 in file "scheduler.c"
  4403 ;; Parameters:    Size  Location     Type
  4404 ;;  taskFunction    1    wreg     PTR FTN()void 
  4405 ;;		 -> ssd_vid_update(1), display_vid_blink(1), counter_vid_update(1), 
  4406 ;;  delay           4   10[BANK0 ] const unsigned long 
  4407 ;;  period          4   14[BANK0 ] const unsigned long 
  4408 ;; Auto vars:     Size  Location     Type
  4409 ;;  taskFunction    1   20[BANK0 ] PTR FTN()void 
  4410 ;;		 -> ssd_vid_update(1), display_vid_blink(1), counter_vid_update(1), 
  4411 ;;  index           1   21[BANK0 ] unsigned char 
  4412 ;; Return value:  Size  Location     Type
  4413 ;;                  1    wreg      unsigned char 
  4414 ;; Registers used:
  4415 ;;		wreg, fsr0l, fsr0h, status,2, status,0, pclath, cstack
  4416 ;; Tracked objects:
  4417 ;;		On entry : 0/0
  4418 ;;		On exit  : 0/0
  4419 ;;		Unchanged: 0/0
  4420 ;; Data sizes:     COMMON   BANK0   BANK1   BANK3   BANK2
  4421 ;;      Params:         0       8       0       0       0
  4422 ;;      Locals:         0       2       0       0       0
  4423 ;;      Temps:          0       2       0       0       0
  4424 ;;      Totals:         0      12       0       0       0
  4425 ;;Total ram usage:       12 bytes
  4426 ;; Hardware stack levels used:    1
  4427 ;; Hardware stack levels required when called:    4
  4428 ;; This function calls:
  4429 ;;		___bmul
  4430 ;; This function is called by:
  4431 ;;		_main
  4432 ;; This function uses a non-reentrant model
  4433 ;;
  4434                           
  4435                           
  4436                           ;psect for function _sch_u8_add_task
  4437  04F0                     _sch_u8_add_task:	
  4438                           
  4439                           ;incstack = 0
  4440                           ; Regs used in _sch_u8_add_task: [wreg-fsr0h+status,2+status,0+pclath+cstack]
  4441                           ;sch_u8_add_task@taskFunction stored from wreg
  4442  04F0  1283               	bcf	3,5	;RP0=0, select bank0
  4443  04F1  1303               	bcf	3,6	;RP1=0, select bank0
  4444  04F2  00E1               	movwf	sch_u8_add_task@taskFunction
  4445  04F3                     l2662:	
  4446                           
  4447                           ;scheduler.c: 49: u8 sch_u8_add_task(void ( * taskFunction)(),;scheduler.c: 50:         
      +                          const u64 delay,;scheduler.c: 51:         const u64 period) {;scheduler.c: 52:     u8 in
      +                          dex = 0;
  4448  04F3  01E2               	clrf	sch_u8_add_task@index
  4449                           
  4450                           ;scheduler.c: 55:     while ((sch_tasks[index].taskFunction != 0) && (index < 3)) {
  4451  04F4  2CF9               	goto	l2666
  4452  04F5                     l2664:	
  4453                           
  4454                           ;scheduler.c: 56:         index++;
  4455  04F5  3001               	movlw	1
  4456  04F6  00DF               	movwf	??_sch_u8_add_task
  4457  04F7  085F               	movf	??_sch_u8_add_task,w
  4458  04F8  07E2               	addwf	sch_u8_add_task@index,f
  4459  04F9                     l2666:	
  4460                           
  4461                           ;scheduler.c: 55:     while ((sch_tasks[index].taskFunction != 0) && (index < 3)) {
  4462  04F9  300D               	movlw	13
  4463  04FA  00DF               	movwf	??_sch_u8_add_task
  4464  04FB  085F               	movf	??_sch_u8_add_task,w
  4465  04FC  00D3               	movwf	___bmul@multiplicand
  4466  04FD  0862               	movf	sch_u8_add_task@index,w
  4467  04FE  120A  158A  2571  120A  118A  	fcall	___bmul
  4468  0503  3E20               	addlw	(low (_sch_tasks| 0))& (0+255)
  4469  0504  0084               	movwf	4
  4470  0505  1383               	bcf	3,7	;select IRP bank0
  4471  0506  0800               	movf	0,w
  4472  0507  1903               	btfsc	3,2
  4473  0508  2D0A               	goto	u2231
  4474  0509  2D0B               	goto	u2230
  4475  050A                     u2231:	
  4476  050A  2D13               	goto	l2670
  4477  050B                     u2230:	
  4478  050B                     l2668:	
  4479  050B  3003               	movlw	3
  4480  050C  1283               	bcf	3,5	;RP0=0, select bank0
  4481  050D  1303               	bcf	3,6	;RP1=0, select bank0
  4482  050E  0262               	subwf	sch_u8_add_task@index,w
  4483  050F  1C03               	skipc
  4484  0510  2D12               	goto	u2241
  4485  0511  2D13               	goto	u2240
  4486  0512                     u2241:	
  4487  0512  2CF5               	goto	l2664
  4488  0513                     u2240:	
  4489  0513                     l2670:	
  4490                           
  4491                           ;scheduler.c: 60:     if (index == 3) {
  4492  0513  3003               	movlw	3
  4493  0514  1283               	bcf	3,5	;RP0=0, select bank0
  4494  0515  1303               	bcf	3,6	;RP1=0, select bank0
  4495  0516  0662               	xorwf	sch_u8_add_task@index,w
  4496  0517  1D03               	btfss	3,2
  4497  0518  2D1A               	goto	u2251
  4498  0519  2D1B               	goto	u2250
  4499  051A                     u2251:	
  4500  051A  2D1C               	goto	l2674
  4501  051B                     u2250:	
  4502  051B  2D7B               	goto	l256
  4503  051C                     l2674:	
  4504                           
  4505                           ;scheduler.c: 66:     sch_tasks[index].taskFunction = taskFunction;
  4506  051C  0861               	movf	sch_u8_add_task@taskFunction,w
  4507  051D  00DF               	movwf	??_sch_u8_add_task
  4508  051E  300D               	movlw	13
  4509  051F  00E0               	movwf	??_sch_u8_add_task+1
  4510  0520  0860               	movf	??_sch_u8_add_task+1,w
  4511  0521  00D3               	movwf	___bmul@multiplicand
  4512  0522  0862               	movf	sch_u8_add_task@index,w
  4513  0523  120A  158A  2571  120A  118A  	fcall	___bmul
  4514  0528  3E20               	addlw	(low (_sch_tasks| 0))& (0+255)
  4515  0529  0084               	movwf	4
  4516  052A  1283               	bcf	3,5	;RP0=0, select bank0
  4517  052B  1303               	bcf	3,6	;RP1=0, select bank0
  4518  052C  085F               	movf	??_sch_u8_add_task,w
  4519  052D  1383               	bcf	3,7	;select IRP bank0
  4520  052E  0080               	movwf	0
  4521                           
  4522                           ;scheduler.c: 67:     sch_tasks[index].delay = delay;
  4523  052F  300D               	movlw	13
  4524  0530  00DF               	movwf	??_sch_u8_add_task
  4525  0531  085F               	movf	??_sch_u8_add_task,w
  4526  0532  00D3               	movwf	___bmul@multiplicand
  4527  0533  0862               	movf	sch_u8_add_task@index,w
  4528  0534  120A  158A  2571  120A  118A  	fcall	___bmul
  4529  0539  3E21               	addlw	(low ((_sch_tasks| 0+1)))& (0+255)
  4530  053A  0084               	movwf	4
  4531  053B  1283               	bcf	3,5	;RP0=0, select bank0
  4532  053C  1303               	bcf	3,6	;RP1=0, select bank0
  4533  053D  0857               	movf	sch_u8_add_task@delay,w
  4534  053E  1383               	bcf	3,7	;select IRP bank0
  4535  053F  0080               	movwf	0
  4536  0540  0A84               	incf	4,f
  4537  0541  0858               	movf	sch_u8_add_task@delay+1,w
  4538  0542  0080               	movwf	0
  4539  0543  0A84               	incf	4,f
  4540  0544  0859               	movf	sch_u8_add_task@delay+2,w
  4541  0545  0080               	movwf	0
  4542  0546  0A84               	incf	4,f
  4543  0547  085A               	movf	sch_u8_add_task@delay+3,w
  4544  0548  0080               	movwf	0
  4545                           
  4546                           ;scheduler.c: 68:     sch_tasks[index].period = period;
  4547  0549  300D               	movlw	13
  4548  054A  00DF               	movwf	??_sch_u8_add_task
  4549  054B  085F               	movf	??_sch_u8_add_task,w
  4550  054C  00D3               	movwf	___bmul@multiplicand
  4551  054D  0862               	movf	sch_u8_add_task@index,w
  4552  054E  120A  158A  2571  120A  118A  	fcall	___bmul
  4553  0553  3E25               	addlw	(low ((_sch_tasks| 0+5)))& (0+255)
  4554  0554  0084               	movwf	4
  4555  0555  1283               	bcf	3,5	;RP0=0, select bank0
  4556  0556  1303               	bcf	3,6	;RP1=0, select bank0
  4557  0557  085B               	movf	sch_u8_add_task@period,w
  4558  0558  1383               	bcf	3,7	;select IRP bank0
  4559  0559  0080               	movwf	0
  4560  055A  0A84               	incf	4,f
  4561  055B  085C               	movf	sch_u8_add_task@period+1,w
  4562  055C  0080               	movwf	0
  4563  055D  0A84               	incf	4,f
  4564  055E  085D               	movf	sch_u8_add_task@period+2,w
  4565  055F  0080               	movwf	0
  4566  0560  0A84               	incf	4,f
  4567  0561  085E               	movf	sch_u8_add_task@period+3,w
  4568  0562  0080               	movwf	0
  4569                           
  4570                           ;scheduler.c: 69:     sch_tasks[index].runMe = 0;
  4571  0563  300D               	movlw	13
  4572  0564  00DF               	movwf	??_sch_u8_add_task
  4573  0565  085F               	movf	??_sch_u8_add_task,w
  4574  0566  00D3               	movwf	___bmul@multiplicand
  4575  0567  0862               	movf	sch_u8_add_task@index,w
  4576  0568  120A  158A  2571  120A  118A  	fcall	___bmul
  4577  056D  3E29               	addlw	(low ((_sch_tasks| 0+9)))& (0+255)
  4578  056E  0084               	movwf	4
  4579  056F  3000               	movlw	0
  4580  0570  1383               	bcf	3,7	;select IRP bank0
  4581  0571  0080               	movwf	0
  4582  0572  0A84               	incf	4,f
  4583  0573  3000               	movlw	0
  4584  0574  0080               	movwf	0
  4585  0575  0A84               	incf	4,f
  4586  0576  3000               	movlw	0
  4587  0577  0080               	movwf	0
  4588  0578  0A84               	incf	4,f
  4589  0579  3000               	movlw	0
  4590  057A  0080               	movwf	0
  4591  057B                     l256:	
  4592  057B  0008               	return
  4593  057C                     __end_of_sch_u8_add_task:	
  4594                           
  4595                           	psect	text21
  4596  0D71                     __ptext21:	
  4597 ;; *************** function ___bmul *****************
  4598 ;; Defined at:
  4599 ;;		line 4 in file "C:\Program Files (x86)\Microchip\xc8\v2.10\pic\sources\c90\common\Umul8.c"
  4600 ;; Parameters:    Size  Location     Type
  4601 ;;  multiplier      1    wreg     unsigned char 
  4602 ;;  multiplicand    1    6[BANK0 ] unsigned char 
  4603 ;; Auto vars:     Size  Location     Type
  4604 ;;  multiplier      1    9[BANK0 ] unsigned char 
  4605 ;;  product         1    8[BANK0 ] unsigned char 
  4606 ;; Return value:  Size  Location     Type
  4607 ;;                  1    wreg      unsigned char 
  4608 ;; Registers used:
  4609 ;;		wreg, status,2, status,0
  4610 ;; Tracked objects:
  4611 ;;		On entry : 0/0
  4612 ;;		On exit  : 0/0
  4613 ;;		Unchanged: 0/0
  4614 ;; Data sizes:     COMMON   BANK0   BANK1   BANK3   BANK2
  4615 ;;      Params:         0       1       0       0       0
  4616 ;;      Locals:         0       2       0       0       0
  4617 ;;      Temps:          0       1       0       0       0
  4618 ;;      Totals:         0       4       0       0       0
  4619 ;;Total ram usage:        4 bytes
  4620 ;; Hardware stack levels used:    1
  4621 ;; Hardware stack levels required when called:    3
  4622 ;; This function calls:
  4623 ;;		Nothing
  4624 ;; This function is called by:
  4625 ;;		_sch_update
  4626 ;;		_sch_u8_add_task
  4627 ;;		_sch_vid_dispatch_tasks
  4628 ;;		_sch_vid_delete_task
  4629 ;; This function uses a non-reentrant model
  4630 ;;
  4631                           
  4632                           
  4633                           ;psect for function ___bmul
  4634  0D71                     ___bmul:	
  4635                           
  4636                           ;incstack = 0
  4637                           ; Regs used in ___bmul: [wreg+status,2+status,0]
  4638                           ;___bmul@multiplier stored from wreg
  4639  0D71  1283               	bcf	3,5	;RP0=0, select bank0
  4640  0D72  1303               	bcf	3,6	;RP1=0, select bank0
  4641  0D73  00D6               	movwf	___bmul@multiplier
  4642  0D74                     l2314:	
  4643  0D74  01D5               	clrf	___bmul@product
  4644  0D75                     l2316:	
  4645  0D75  1C56               	btfss	___bmul@multiplier,0
  4646  0D76  2D78               	goto	u1561
  4647  0D77  2D79               	goto	u1560
  4648  0D78                     u1561:	
  4649  0D78  2D7D               	goto	l2320
  4650  0D79                     u1560:	
  4651  0D79                     l2318:	
  4652  0D79  0853               	movf	___bmul@multiplicand,w
  4653  0D7A  00D4               	movwf	??___bmul
  4654  0D7B  0854               	movf	??___bmul,w
  4655  0D7C  07D5               	addwf	___bmul@product,f
  4656  0D7D                     l2320:	
  4657  0D7D  1003               	clrc
  4658  0D7E  0DD3               	rlf	___bmul@multiplicand,f
  4659  0D7F                     l2322:	
  4660  0D7F  1003               	clrc
  4661  0D80  0CD6               	rrf	___bmul@multiplier,f
  4662  0D81  0856               	movf	___bmul@multiplier,w
  4663  0D82  1D03               	btfss	3,2
  4664  0D83  2D85               	goto	u1571
  4665  0D84  2D86               	goto	u1570
  4666  0D85                     u1571:	
  4667  0D85  2D75               	goto	l2316
  4668  0D86                     u1570:	
  4669  0D86                     l2324:	
  4670  0D86  0855               	movf	___bmul@product,w
  4671  0D87                     l650:	
  4672  0D87  0008               	return
  4673  0D88                     __end_of___bmul:	
  4674                           
  4675                           	psect	text22
  4676  0E31                     __ptext22:	
  4677 ;; *************** function _i2c_vid_master_init *****************
  4678 ;; Defined at:
  4679 ;;		line 16 in file "i2c.c"
  4680 ;; Parameters:    Size  Location     Type
  4681 ;;		None
  4682 ;; Auto vars:     Size  Location     Type
  4683 ;;		None
  4684 ;; Return value:  Size  Location     Type
  4685 ;;                  1    wreg      void 
  4686 ;; Registers used:
  4687 ;;		wreg, fsr0l, fsr0h, status,2, status,0, pclath, cstack
  4688 ;; Tracked objects:
  4689 ;;		On entry : 0/0
  4690 ;;		On exit  : 0/0
  4691 ;;		Unchanged: 0/0
  4692 ;; Data sizes:     COMMON   BANK0   BANK1   BANK3   BANK2
  4693 ;;      Params:         0       0       0       0       0
  4694 ;;      Locals:         0       0       0       0       0
  4695 ;;      Temps:          0       1       0       0       0
  4696 ;;      Totals:         0       1       0       0       0
  4697 ;;Total ram usage:        1 bytes
  4698 ;; Hardware stack levels used:    1
  4699 ;; Hardware stack levels required when called:    4
  4700 ;; This function calls:
  4701 ;;		_dio_vid_set_pin_direction
  4702 ;; This function is called by:
  4703 ;;		_main
  4704 ;; This function uses a non-reentrant model
  4705 ;;
  4706                           
  4707                           
  4708                           ;psect for function _i2c_vid_master_init
  4709  0E31                     _i2c_vid_master_init:	
  4710  0E31                     l2612:	
  4711                           ;incstack = 0
  4712                           ; Regs used in _i2c_vid_master_init: [wreg-fsr0h+status,2+status,0+pclath+cstack]
  4713                           
  4714                           
  4715                           ;i2c.c: 18:     dio_vid_set_pin_direction(C, 3, 0x01);
  4716  0E31  3003               	movlw	3
  4717  0E32  1283               	bcf	3,5	;RP0=0, select bank0
  4718  0E33  1303               	bcf	3,6	;RP1=0, select bank0
  4719  0E34  00D8               	movwf	??_i2c_vid_master_init
  4720  0E35  0858               	movf	??_i2c_vid_master_init,w
  4721  0E36  00D3               	movwf	dio_vid_set_pin_direction@index
  4722  0E37  01D4               	clrf	dio_vid_set_pin_direction@direction
  4723  0E38  0AD4               	incf	dio_vid_set_pin_direction@direction,f
  4724  0E39  3002               	movlw	2
  4725  0E3A  120A  118A  2050  120A  158A  	fcall	_dio_vid_set_pin_direction
  4726                           
  4727                           ;i2c.c: 19:     dio_vid_set_pin_direction(C, 4, 0x01);
  4728  0E3F  3004               	movlw	4
  4729  0E40  1283               	bcf	3,5	;RP0=0, select bank0
  4730  0E41  1303               	bcf	3,6	;RP1=0, select bank0
  4731  0E42  00D8               	movwf	??_i2c_vid_master_init
  4732  0E43  0858               	movf	??_i2c_vid_master_init,w
  4733  0E44  00D3               	movwf	dio_vid_set_pin_direction@index
  4734  0E45  01D4               	clrf	dio_vid_set_pin_direction@direction
  4735  0E46  0AD4               	incf	dio_vid_set_pin_direction@direction,f
  4736  0E47  3002               	movlw	2
  4737  0E48  120A  118A  2050  120A  158A  	fcall	_dio_vid_set_pin_direction
  4738  0E4D                     l2614:	
  4739                           
  4740                           ;i2c.c: 21:     SSPCON2 = 0x00;
  4741  0E4D  1683               	bsf	3,5	;RP0=1, select bank1
  4742  0E4E  1303               	bcf	3,6	;RP1=0, select bank1
  4743  0E4F  0191               	clrf	17	;volatile
  4744  0E50                     l2616:	
  4745                           
  4746                           ;i2c.c: 22:     SSPSTAT = 0x00;
  4747  0E50  0194               	clrf	20	;volatile
  4748  0E51                     l2618:	
  4749                           
  4750                           ;i2c.c: 25:     SSPEN = 1;
  4751  0E51  1283               	bcf	3,5	;RP0=0, select bank0
  4752  0E52  1303               	bcf	3,6	;RP1=0, select bank0
  4753  0E53  1694               	bsf	20,5	;volatile
  4754  0E54                     l2620:	
  4755                           
  4756                           ;i2c.c: 28:     SSPM3 = 1;
  4757  0E54  1594               	bsf	20,3	;volatile
  4758  0E55                     l2622:	
  4759                           
  4760                           ;i2c.c: 29:     SSPM2 = 0;
  4761  0E55  1114               	bcf	20,2	;volatile
  4762  0E56                     l2624:	
  4763                           
  4764                           ;i2c.c: 30:     SSPM1 = 0;
  4765  0E56  1094               	bcf	20,1	;volatile
  4766  0E57                     l2626:	
  4767                           
  4768                           ;i2c.c: 31:     SSPM0 = 0;
  4769  0E57  1014               	bcf	20,0	;volatile
  4770  0E58                     l2628:	
  4771                           
  4772                           ;i2c.c: 34:     SSPADD = ((8000000 / 4) / 9600) - 1;
  4773  0E58  30CF               	movlw	207
  4774  0E59  1683               	bsf	3,5	;RP0=1, select bank1
  4775  0E5A  1303               	bcf	3,6	;RP1=0, select bank1
  4776  0E5B  0093               	movwf	19	;volatile
  4777  0E5C                     l369:	
  4778  0E5C  0008               	return
  4779  0E5D                     __end_of_i2c_vid_master_init:	
  4780                           
  4781                           	psect	text23
  4782  06AC                     __ptext23:	
  4783 ;; *************** function _counter_vid_init *****************
  4784 ;; Defined at:
  4785 ;;		line 26 in file "counter.c"
  4786 ;; Parameters:    Size  Location     Type
  4787 ;;		None
  4788 ;; Auto vars:     Size  Location     Type
  4789 ;;		None
  4790 ;; Return value:  Size  Location     Type
  4791 ;;                  1    wreg      void 
  4792 ;; Registers used:
  4793 ;;		wreg, fsr0l, fsr0h, status,2, status,0, pclath, cstack
  4794 ;; Tracked objects:
  4795 ;;		On entry : 0/0
  4796 ;;		On exit  : 0/0
  4797 ;;		Unchanged: 0/0
  4798 ;; Data sizes:     COMMON   BANK0   BANK1   BANK3   BANK2
  4799 ;;      Params:         0       0       0       0       0
  4800 ;;      Locals:         0       0       0       0       0
  4801 ;;      Temps:          0       2       0       0       0
  4802 ;;      Totals:         0       2       0       0       0
  4803 ;;Total ram usage:        2 bytes
  4804 ;; Hardware stack levels used:    1
  4805 ;; Hardware stack levels required when called:    6
  4806 ;; This function calls:
  4807 ;;		___awmod
  4808 ;;		_dio_vid_set_pin_direction
  4809 ;;		_eeprom_external_vid_read
  4810 ;;		_ssd_vid_set_state
  4811 ;;		_ssd_vid_set_symbol
  4812 ;; This function is called by:
  4813 ;;		_main
  4814 ;; This function uses a non-reentrant model
  4815 ;;
  4816                           
  4817                           
  4818                           ;psect for function _counter_vid_init
  4819  06AC                     _counter_vid_init:	
  4820  06AC                     l2630:	
  4821                           ;incstack = 0
  4822                           ; Regs used in _counter_vid_init: [wreg-fsr0h+status,2+status,0+pclath+cstack]
  4823                           
  4824                           
  4825                           ;counter.c: 28:     dio_vid_set_pin_direction(B, 2, 0x01);
  4826  06AC  3002               	movlw	2
  4827  06AD  1283               	bcf	3,5	;RP0=0, select bank0
  4828  06AE  1303               	bcf	3,6	;RP1=0, select bank0
  4829  06AF  00DA               	movwf	??_counter_vid_init
  4830  06B0  085A               	movf	??_counter_vid_init,w
  4831  06B1  00D3               	movwf	dio_vid_set_pin_direction@index
  4832  06B2  01D4               	clrf	dio_vid_set_pin_direction@direction
  4833  06B3  0AD4               	incf	dio_vid_set_pin_direction@direction,f
  4834  06B4  3001               	movlw	1
  4835  06B5  120A  118A  2050  120A  118A  	fcall	_dio_vid_set_pin_direction
  4836                           
  4837                           ;counter.c: 29:     dio_vid_set_pin_direction(B, 1, 0x01);
  4838  06BA  1283               	bcf	3,5	;RP0=0, select bank0
  4839  06BB  1303               	bcf	3,6	;RP1=0, select bank0
  4840  06BC  01D3               	clrf	dio_vid_set_pin_direction@index
  4841  06BD  0AD3               	incf	dio_vid_set_pin_direction@index,f
  4842  06BE  01D4               	clrf	dio_vid_set_pin_direction@direction
  4843  06BF  0AD4               	incf	dio_vid_set_pin_direction@direction,f
  4844  06C0  3001               	movlw	1
  4845  06C1  120A  118A  2050  120A  118A  	fcall	_dio_vid_set_pin_direction
  4846  06C6                     l2632:	
  4847                           
  4848                           ;counter.c: 30:     counter = eeprom_external_vid_read(0);
  4849  06C6  3000               	movlw	0
  4850  06C7  120A  158A  27B6  120A  118A  	fcall	_eeprom_external_vid_read
  4851  06CC  1283               	bcf	3,5	;RP0=0, select bank0
  4852  06CD  1303               	bcf	3,6	;RP1=0, select bank0
  4853  06CE  00DA               	movwf	??_counter_vid_init
  4854  06CF  085A               	movf	??_counter_vid_init,w
  4855  06D0  00E5               	movwf	_counter
  4856  06D1                     l2634:	
  4857                           
  4858                           ;counter.c: 31:     if (counter < 35 || counter > 75 || counter % 5 != 0)
  4859  06D1  3023               	movlw	35
  4860  06D2  0265               	subwf	_counter,w
  4861  06D3  1C03               	skipc
  4862  06D4  2ED6               	goto	u2191
  4863  06D5  2ED7               	goto	u2190
  4864  06D6                     u2191:	
  4865  06D6  2EF5               	goto	l2640
  4866  06D7                     u2190:	
  4867  06D7                     l2636:	
  4868  06D7  304C               	movlw	76
  4869  06D8  0265               	subwf	_counter,w
  4870  06D9  1803               	skipnc
  4871  06DA  2EDC               	goto	u2201
  4872  06DB  2EDD               	goto	u2200
  4873  06DC                     u2201:	
  4874  06DC  2EF5               	goto	l2640
  4875  06DD                     u2200:	
  4876  06DD                     l2638:	
  4877  06DD  3005               	movlw	5
  4878  06DE  00D3               	movwf	___awmod@divisor
  4879  06DF  3000               	movlw	0
  4880  06E0  00D4               	movwf	___awmod@divisor+1
  4881  06E1  0865               	movf	_counter,w
  4882  06E2  00DA               	movwf	??_counter_vid_init
  4883  06E3  01DB               	clrf	??_counter_vid_init+1
  4884  06E4  085A               	movf	??_counter_vid_init,w
  4885  06E5  00D5               	movwf	___awmod@dividend
  4886  06E6  085B               	movf	??_counter_vid_init+1,w
  4887  06E7  00D6               	movwf	___awmod@dividend+1
  4888  06E8  120A  118A  2708  120A  118A  	fcall	___awmod
  4889  06ED  1283               	bcf	3,5	;RP0=0, select bank0
  4890  06EE  1303               	bcf	3,6	;RP1=0, select bank0
  4891  06EF  0853               	movf	?___awmod,w
  4892  06F0  0454               	iorwf	?___awmod+1,w
  4893  06F1  1903               	btfsc	3,2
  4894  06F2  2EF4               	goto	u2211
  4895  06F3  2EF5               	goto	u2210
  4896  06F4                     u2211:	
  4897  06F4  2EF9               	goto	l2642
  4898  06F5                     u2210:	
  4899  06F5                     l2640:	
  4900                           
  4901                           ;counter.c: 32:         counter = 60;
  4902  06F5  303C               	movlw	60
  4903  06F6  00DA               	movwf	??_counter_vid_init
  4904  06F7  085A               	movf	??_counter_vid_init,w
  4905  06F8  00E5               	movwf	_counter
  4906  06F9                     l2642:	
  4907                           
  4908                           ;counter.c: 33:     ssd_vid_set_state(1);
  4909  06F9  3001               	movlw	1
  4910  06FA  120A  158A  24C9  120A  118A  	fcall	_ssd_vid_set_state
  4911  06FF                     l2644:	
  4912                           
  4913                           ;counter.c: 34:     ssd_vid_set_symbol(counter);
  4914  06FF  1283               	bcf	3,5	;RP0=0, select bank0
  4915  0700  1303               	bcf	3,6	;RP1=0, select bank0
  4916  0701  0865               	movf	_counter,w
  4917  0702  120A  158A  24FC  120A  118A  	fcall	_ssd_vid_set_symbol
  4918  0707                     l494:	
  4919  0707  0008               	return
  4920  0708                     __end_of_counter_vid_init:	
  4921                           
  4922                           	psect	text24
  4923  0CFC                     __ptext24:	
  4924 ;; *************** function _ssd_vid_set_symbol *****************
  4925 ;; Defined at:
  4926 ;;		line 58 in file "ssd.c"
  4927 ;; Parameters:    Size  Location     Type
  4928 ;;  symbol          1    wreg     unsigned char 
  4929 ;; Auto vars:     Size  Location     Type
  4930 ;;  symbol          1    8[BANK0 ] unsigned char 
  4931 ;; Return value:  Size  Location     Type
  4932 ;;                  1    wreg      void 
  4933 ;; Registers used:
  4934 ;;		wreg
  4935 ;; Tracked objects:
  4936 ;;		On entry : 0/0
  4937 ;;		On exit  : 0/0
  4938 ;;		Unchanged: 0/0
  4939 ;; Data sizes:     COMMON   BANK0   BANK1   BANK3   BANK2
  4940 ;;      Params:         0       0       0       0       0
  4941 ;;      Locals:         0       1       0       0       0
  4942 ;;      Temps:          0       2       0       0       0
  4943 ;;      Totals:         0       3       0       0       0
  4944 ;;Total ram usage:        3 bytes
  4945 ;; Hardware stack levels used:    1
  4946 ;; Hardware stack levels required when called:    3
  4947 ;; This function calls:
  4948 ;;		Nothing
  4949 ;; This function is called by:
  4950 ;;		_counter_vid_init
  4951 ;;		_counter_vid_update
  4952 ;; This function uses a non-reentrant model
  4953 ;;
  4954                           
  4955                           
  4956                           ;psect for function _ssd_vid_set_symbol
  4957  0CFC                     _ssd_vid_set_symbol:	
  4958                           
  4959                           ;incstack = 0
  4960                           ; Regs used in _ssd_vid_set_symbol: [wreg]
  4961                           ;ssd_vid_set_symbol@symbol stored from wreg
  4962  0CFC  1283               	bcf	3,5	;RP0=0, select bank0
  4963  0CFD  1303               	bcf	3,6	;RP1=0, select bank0
  4964  0CFE  00D5               	movwf	ssd_vid_set_symbol@symbol
  4965  0CFF                     l2280:	
  4966                           
  4967                           ;ssd.c: 59:     ssdSymbol = symbol;
  4968  0CFF  0855               	movf	ssd_vid_set_symbol@symbol,w
  4969  0D00  00D3               	movwf	??_ssd_vid_set_symbol
  4970  0D01  01D4               	clrf	??_ssd_vid_set_symbol+1
  4971  0D02  0853               	movf	??_ssd_vid_set_symbol,w
  4972  0D03  00C9               	movwf	_ssdSymbol
  4973  0D04  0854               	movf	??_ssd_vid_set_symbol+1,w
  4974  0D05  00CA               	movwf	_ssdSymbol+1
  4975  0D06                     l201:	
  4976  0D06  0008               	return
  4977  0D07                     __end_of_ssd_vid_set_symbol:	
  4978                           
  4979                           	psect	text25
  4980  0CC9                     __ptext25:	
  4981 ;; *************** function _ssd_vid_set_state *****************
  4982 ;; Defined at:
  4983 ;;		line 66 in file "ssd.c"
  4984 ;; Parameters:    Size  Location     Type
  4985 ;;  state           1    wreg     unsigned char 
  4986 ;; Auto vars:     Size  Location     Type
  4987 ;;  state           1    7[BANK0 ] unsigned char 
  4988 ;; Return value:  Size  Location     Type
  4989 ;;                  1    wreg      void 
  4990 ;; Registers used:
  4991 ;;		wreg
  4992 ;; Tracked objects:
  4993 ;;		On entry : 0/0
  4994 ;;		On exit  : 0/0
  4995 ;;		Unchanged: 0/0
  4996 ;; Data sizes:     COMMON   BANK0   BANK1   BANK3   BANK2
  4997 ;;      Params:         0       0       0       0       0
  4998 ;;      Locals:         0       1       0       0       0
  4999 ;;      Temps:          0       1       0       0       0
  5000 ;;      Totals:         0       2       0       0       0
  5001 ;;Total ram usage:        2 bytes
  5002 ;; Hardware stack levels used:    1
  5003 ;; Hardware stack levels required when called:    3
  5004 ;; This function calls:
  5005 ;;		Nothing
  5006 ;; This function is called by:
  5007 ;;		_counter_vid_init
  5008 ;;		_display_vid_blink
  5009 ;; This function uses a non-reentrant model
  5010 ;;
  5011                           
  5012                           
  5013                           ;psect for function _ssd_vid_set_state
  5014  0CC9                     _ssd_vid_set_state:	
  5015                           
  5016                           ;incstack = 0
  5017                           ; Regs used in _ssd_vid_set_state: [wreg]
  5018                           ;ssd_vid_set_state@state stored from wreg
  5019  0CC9  1283               	bcf	3,5	;RP0=0, select bank0
  5020  0CCA  1303               	bcf	3,6	;RP1=0, select bank0
  5021  0CCB  00D4               	movwf	ssd_vid_set_state@state
  5022  0CCC                     l2286:	
  5023                           
  5024                           ;ssd.c: 67:     ssdState = state;
  5025  0CCC  0854               	movf	ssd_vid_set_state@state,w
  5026  0CCD  00D3               	movwf	??_ssd_vid_set_state
  5027  0CCE  0853               	movf	??_ssd_vid_set_state,w
  5028  0CCF  00E6               	movwf	_ssdState
  5029  0CD0                     l207:	
  5030  0CD0  0008               	return
  5031  0CD1                     __end_of_ssd_vid_set_state:	
  5032                           
  5033                           	psect	text26
  5034  0FB6                     __ptext26:	
  5035 ;; *************** function _eeprom_external_vid_read *****************
  5036 ;; Defined at:
  5037 ;;		line 20 in file "eeprom_external.c"
  5038 ;; Parameters:    Size  Location     Type
  5039 ;;  address         1    wreg     unsigned char 
  5040 ;; Auto vars:     Size  Location     Type
  5041 ;;  address         1    9[BANK0 ] unsigned char 
  5042 ;;  data            1   10[BANK0 ] unsigned char 
  5043 ;; Return value:  Size  Location     Type
  5044 ;;                  1    wreg      unsigned char 
  5045 ;; Registers used:
  5046 ;;		wreg, status,2, status,0, pclath, cstack
  5047 ;; Tracked objects:
  5048 ;;		On entry : 0/0
  5049 ;;		On exit  : 0/0
  5050 ;;		Unchanged: 0/0
  5051 ;; Data sizes:     COMMON   BANK0   BANK1   BANK3   BANK2
  5052 ;;      Params:         0       0       0       0       0
  5053 ;;      Locals:         0       2       0       0       0
  5054 ;;      Temps:          0       1       0       0       0
  5055 ;;      Totals:         0       3       0       0       0
  5056 ;;Total ram usage:        3 bytes
  5057 ;; Hardware stack levels used:    1
  5058 ;; Hardware stack levels required when called:    5
  5059 ;; This function calls:
  5060 ;;		_i2c_u8_master_read_byte
  5061 ;;		_i2c_u8_master_write_byte
  5062 ;;		_i2c_u8_master_write_slave_address_with_read_req
  5063 ;;		_i2c_u8_master_write_slave_address_with_write_req
  5064 ;;		_i2c_vid_nack
  5065 ;;		_i2c_vid_restart
  5066 ;;		_i2c_vid_start
  5067 ;;		_i2c_vid_stop
  5068 ;; This function is called by:
  5069 ;;		_counter_vid_init
  5070 ;; This function uses a non-reentrant model
  5071 ;;
  5072                           
  5073                           
  5074                           ;psect for function _eeprom_external_vid_read
  5075  0FB6                     _eeprom_external_vid_read:	
  5076                           
  5077                           ;incstack = 0
  5078                           ; Regs used in _eeprom_external_vid_read: [wreg+status,2+status,0+pclath+cstack]
  5079                           ;eeprom_external_vid_read@address stored from wreg
  5080  0FB6  1283               	bcf	3,5	;RP0=0, select bank0
  5081  0FB7  1303               	bcf	3,6	;RP1=0, select bank0
  5082  0FB8  00D6               	movwf	eeprom_external_vid_read@address
  5083  0FB9                     l2488:	
  5084                           
  5085                           ;eeprom_external.c: 21:     u8 data;;eeprom_external.c: 22:     i2c_vid_start();
  5086  0FB9  120A  158A  24EA  120A  158A  	fcall	_i2c_vid_start
  5087                           
  5088                           ;eeprom_external.c: 23:     while(i2c_u8_master_write_slave_address_with_write_req(0x50)
      +                          )
  5089  0FBE  2FC4               	goto	l465
  5090  0FBF                     l2490:	
  5091                           
  5092                           ;eeprom_external.c: 24:     i2c_vid_restart();
  5093  0FBF  120A  158A  24E1  120A  158A  	fcall	_i2c_vid_restart
  5094  0FC4                     l465:	
  5095                           
  5096                           ;eeprom_external.c: 23:     while(i2c_u8_master_write_slave_address_with_write_req(0x50)
      +                          )
  5097  0FC4  3050               	movlw	80
  5098  0FC5  120A  158A  2588  120A  158A  	fcall	_i2c_u8_master_write_slave_address_with_write_req
  5099  0FCA  3A00               	xorlw	0
  5100  0FCB  1D03               	skipz
  5101  0FCC  2FCE               	goto	u1951
  5102  0FCD  2FCF               	goto	u1950
  5103  0FCE                     u1951:	
  5104  0FCE  2FBF               	goto	l2490
  5105  0FCF                     u1950:	
  5106  0FCF                     l2492:	
  5107                           
  5108                           ;eeprom_external.c: 25:     i2c_u8_master_write_byte(address >> 8);
  5109  0FCF  3000               	movlw	0
  5110  0FD0  120A  158A  2520  120A  158A  	fcall	_i2c_u8_master_write_byte
  5111                           
  5112                           ;eeprom_external.c: 26:     i2c_u8_master_write_byte((u8) address);
  5113  0FD5  1283               	bcf	3,5	;RP0=0, select bank0
  5114  0FD6  1303               	bcf	3,6	;RP1=0, select bank0
  5115  0FD7  0856               	movf	eeprom_external_vid_read@address,w
  5116  0FD8  120A  158A  2520  120A  158A  	fcall	_i2c_u8_master_write_byte
  5117                           
  5118                           ;eeprom_external.c: 27:     i2c_vid_restart();
  5119  0FDD  120A  158A  24E1  120A  158A  	fcall	_i2c_vid_restart
  5120                           
  5121                           ;eeprom_external.c: 28:     i2c_u8_master_write_slave_address_with_read_req(0x50);
  5122  0FE2  3050               	movlw	80
  5123  0FE3  120A  158A  2532  120A  158A  	fcall	_i2c_u8_master_write_slave_address_with_read_req
  5124                           
  5125                           ;eeprom_external.c: 29:     data = i2c_u8_master_read_byte();
  5126  0FE8  120A  158A  255A  120A  158A  	fcall	_i2c_u8_master_read_byte
  5127  0FED  1283               	bcf	3,5	;RP0=0, select bank0
  5128  0FEE  1303               	bcf	3,6	;RP1=0, select bank0
  5129  0FEF  00D5               	movwf	??_eeprom_external_vid_read
  5130  0FF0  0855               	movf	??_eeprom_external_vid_read,w
  5131  0FF1  00D7               	movwf	eeprom_external_vid_read@data
  5132                           
  5133                           ;eeprom_external.c: 30:     i2c_vid_nack();
  5134  0FF2  120A  158A  2507  120A  158A  	fcall	_i2c_vid_nack
  5135                           
  5136                           ;eeprom_external.c: 31:     i2c_vid_stop();
  5137  0FF7  120A  158A  24F3  120A  158A  	fcall	_i2c_vid_stop
  5138  0FFC                     l2494:	
  5139                           
  5140                           ;eeprom_external.c: 32:     return data;
  5141  0FFC  1283               	bcf	3,5	;RP0=0, select bank0
  5142  0FFD  1303               	bcf	3,6	;RP1=0, select bank0
  5143  0FFE  0857               	movf	eeprom_external_vid_read@data,w
  5144  0FFF                     l468:	
  5145  0FFF  0008               	return
  5146  1000                     __end_of_eeprom_external_vid_read:	
  5147                           
  5148                           	psect	text27
  5149  0CF3                     __ptext27:	
  5150 ;; *************** function _i2c_vid_stop *****************
  5151 ;; Defined at:
  5152 ;;		line 43 in file "i2c.c"
  5153 ;; Parameters:    Size  Location     Type
  5154 ;;		None
  5155 ;; Auto vars:     Size  Location     Type
  5156 ;;		None
  5157 ;; Return value:  Size  Location     Type
  5158 ;;                  1    wreg      void 
  5159 ;; Registers used:
  5160 ;;		wreg, status,2, status,0, pclath, cstack
  5161 ;; Tracked objects:
  5162 ;;		On entry : 0/0
  5163 ;;		On exit  : 0/0
  5164 ;;		Unchanged: 0/0
  5165 ;; Data sizes:     COMMON   BANK0   BANK1   BANK3   BANK2
  5166 ;;      Params:         0       0       0       0       0
  5167 ;;      Locals:         0       0       0       0       0
  5168 ;;      Temps:          0       0       0       0       0
  5169 ;;      Totals:         0       0       0       0       0
  5170 ;;Total ram usage:        0 bytes
  5171 ;; Hardware stack levels used:    1
  5172 ;; Hardware stack levels required when called:    4
  5173 ;; This function calls:
  5174 ;;		_i2c_vid_wait
  5175 ;; This function is called by:
  5176 ;;		_eeprom_external_vid_write
  5177 ;;		_eeprom_external_vid_read
  5178 ;; This function uses a non-reentrant model
  5179 ;;
  5180                           
  5181                           
  5182                           ;psect for function _i2c_vid_stop
  5183  0CF3                     _i2c_vid_stop:	
  5184  0CF3                     l2124:	
  5185                           ;incstack = 0
  5186                           ; Regs used in _i2c_vid_stop: [wreg+status,2+status,0+pclath+cstack]
  5187                           
  5188                           
  5189                           ;i2c.c: 44:     i2c_vid_wait();
  5190  0CF3  120A  158A  2513  120A  158A  	fcall	_i2c_vid_wait
  5191  0CF8                     l2126:	
  5192                           
  5193                           ;i2c.c: 46:     PEN = 1;
  5194  0CF8  1683               	bsf	3,5	;RP0=1, select bank1
  5195  0CF9  1303               	bcf	3,6	;RP1=0, select bank1
  5196  0CFA  1511               	bsf	17,2	;volatile
  5197  0CFB                     l375:	
  5198  0CFB  0008               	return
  5199  0CFC                     __end_of_i2c_vid_stop:	
  5200                           
  5201                           	psect	text28
  5202  0CEA                     __ptext28:	
  5203 ;; *************** function _i2c_vid_start *****************
  5204 ;; Defined at:
  5205 ;;		line 37 in file "i2c.c"
  5206 ;; Parameters:    Size  Location     Type
  5207 ;;		None
  5208 ;; Auto vars:     Size  Location     Type
  5209 ;;		None
  5210 ;; Return value:  Size  Location     Type
  5211 ;;                  1    wreg      void 
  5212 ;; Registers used:
  5213 ;;		wreg, status,2, status,0, pclath, cstack
  5214 ;; Tracked objects:
  5215 ;;		On entry : 0/0
  5216 ;;		On exit  : 0/0
  5217 ;;		Unchanged: 0/0
  5218 ;; Data sizes:     COMMON   BANK0   BANK1   BANK3   BANK2
  5219 ;;      Params:         0       0       0       0       0
  5220 ;;      Locals:         0       0       0       0       0
  5221 ;;      Temps:          0       0       0       0       0
  5222 ;;      Totals:         0       0       0       0       0
  5223 ;;Total ram usage:        0 bytes
  5224 ;; Hardware stack levels used:    1
  5225 ;; Hardware stack levels required when called:    4
  5226 ;; This function calls:
  5227 ;;		_i2c_vid_wait
  5228 ;; This function is called by:
  5229 ;;		_eeprom_external_vid_write
  5230 ;;		_eeprom_external_vid_read
  5231 ;; This function uses a non-reentrant model
  5232 ;;
  5233                           
  5234                           
  5235                           ;psect for function _i2c_vid_start
  5236  0CEA                     _i2c_vid_start:	
  5237  0CEA                     l2120:	
  5238                           ;incstack = 0
  5239                           ; Regs used in _i2c_vid_start: [wreg+status,2+status,0+pclath+cstack]
  5240                           
  5241                           
  5242                           ;i2c.c: 38:     i2c_vid_wait();
  5243  0CEA  120A  158A  2513  120A  158A  	fcall	_i2c_vid_wait
  5244  0CEF                     l2122:	
  5245                           
  5246                           ;i2c.c: 40:     SEN = 1;
  5247  0CEF  1683               	bsf	3,5	;RP0=1, select bank1
  5248  0CF0  1303               	bcf	3,6	;RP1=0, select bank1
  5249  0CF1  1411               	bsf	17,0	;volatile
  5250  0CF2                     l372:	
  5251  0CF2  0008               	return
  5252  0CF3                     __end_of_i2c_vid_start:	
  5253                           
  5254                           	psect	text29
  5255  0CE1                     __ptext29:	
  5256 ;; *************** function _i2c_vid_restart *****************
  5257 ;; Defined at:
  5258 ;;		line 49 in file "i2c.c"
  5259 ;; Parameters:    Size  Location     Type
  5260 ;;		None
  5261 ;; Auto vars:     Size  Location     Type
  5262 ;;		None
  5263 ;; Return value:  Size  Location     Type
  5264 ;;                  1    wreg      void 
  5265 ;; Registers used:
  5266 ;;		wreg, status,2, status,0, pclath, cstack
  5267 ;; Tracked objects:
  5268 ;;		On entry : 0/0
  5269 ;;		On exit  : 0/0
  5270 ;;		Unchanged: 0/0
  5271 ;; Data sizes:     COMMON   BANK0   BANK1   BANK3   BANK2
  5272 ;;      Params:         0       0       0       0       0
  5273 ;;      Locals:         0       0       0       0       0
  5274 ;;      Temps:          0       0       0       0       0
  5275 ;;      Totals:         0       0       0       0       0
  5276 ;;Total ram usage:        0 bytes
  5277 ;; Hardware stack levels used:    1
  5278 ;; Hardware stack levels required when called:    4
  5279 ;; This function calls:
  5280 ;;		_i2c_vid_wait
  5281 ;; This function is called by:
  5282 ;;		_eeprom_external_vid_write
  5283 ;;		_eeprom_external_vid_read
  5284 ;; This function uses a non-reentrant model
  5285 ;;
  5286                           
  5287                           
  5288                           ;psect for function _i2c_vid_restart
  5289  0CE1                     _i2c_vid_restart:	
  5290  0CE1                     l2128:	
  5291                           ;incstack = 0
  5292                           ; Regs used in _i2c_vid_restart: [wreg+status,2+status,0+pclath+cstack]
  5293                           
  5294                           
  5295                           ;i2c.c: 50:     i2c_vid_wait();
  5296  0CE1  120A  158A  2513  120A  158A  	fcall	_i2c_vid_wait
  5297  0CE6                     l2130:	
  5298                           
  5299                           ;i2c.c: 52:     RSEN = 1;
  5300  0CE6  1683               	bsf	3,5	;RP0=1, select bank1
  5301  0CE7  1303               	bcf	3,6	;RP1=0, select bank1
  5302  0CE8  1491               	bsf	17,1	;volatile
  5303  0CE9                     l378:	
  5304  0CE9  0008               	return
  5305  0CEA                     __end_of_i2c_vid_restart:	
  5306                           
  5307                           	psect	text30
  5308  0D07                     __ptext30:	
  5309 ;; *************** function _i2c_vid_nack *****************
  5310 ;; Defined at:
  5311 ;;		line 65 in file "i2c.c"
  5312 ;; Parameters:    Size  Location     Type
  5313 ;;		None
  5314 ;; Auto vars:     Size  Location     Type
  5315 ;;		None
  5316 ;; Return value:  Size  Location     Type
  5317 ;;                  1    wreg      void 
  5318 ;; Registers used:
  5319 ;;		wreg, status,2, status,0, pclath, cstack
  5320 ;; Tracked objects:
  5321 ;;		On entry : 0/0
  5322 ;;		On exit  : 0/0
  5323 ;;		Unchanged: 0/0
  5324 ;; Data sizes:     COMMON   BANK0   BANK1   BANK3   BANK2
  5325 ;;      Params:         0       0       0       0       0
  5326 ;;      Locals:         0       0       0       0       0
  5327 ;;      Temps:          0       0       0       0       0
  5328 ;;      Totals:         0       0       0       0       0
  5329 ;;Total ram usage:        0 bytes
  5330 ;; Hardware stack levels used:    1
  5331 ;; Hardware stack levels required when called:    4
  5332 ;; This function calls:
  5333 ;;		_i2c_vid_wait
  5334 ;; This function is called by:
  5335 ;;		_eeprom_external_vid_read
  5336 ;; This function uses a non-reentrant model
  5337 ;;
  5338                           
  5339                           
  5340                           ;psect for function _i2c_vid_nack
  5341  0D07                     _i2c_vid_nack:	
  5342  0D07                     l2288:	
  5343                           ;incstack = 0
  5344                           ; Regs used in _i2c_vid_nack: [wreg+status,2+status,0+pclath+cstack]
  5345                           
  5346                           
  5347                           ;i2c.c: 66:     ACKDT = 1;
  5348  0D07  1683               	bsf	3,5	;RP0=1, select bank1
  5349  0D08  1303               	bcf	3,6	;RP1=0, select bank1
  5350  0D09  1691               	bsf	17,5	;volatile
  5351  0D0A                     l2290:	
  5352                           
  5353                           ;i2c.c: 67:     i2c_vid_wait();
  5354  0D0A  120A  158A  2513  120A  158A  	fcall	_i2c_vid_wait
  5355  0D0F                     l2292:	
  5356                           
  5357                           ;i2c.c: 68:     ACKEN = 1;
  5358  0D0F  1683               	bsf	3,5	;RP0=1, select bank1
  5359  0D10  1303               	bcf	3,6	;RP1=0, select bank1
  5360  0D11  1611               	bsf	17,4	;volatile
  5361  0D12                     l390:	
  5362  0D12  0008               	return
  5363  0D13                     __end_of_i2c_vid_nack:	
  5364                           
  5365                           	psect	text31
  5366  0D88                     __ptext31:	
  5367 ;; *************** function _i2c_u8_master_write_slave_address_with_write_req *****************
  5368 ;; Defined at:
  5369 ;;		line 71 in file "i2c.c"
  5370 ;; Parameters:    Size  Location     Type
  5371 ;;  address         1    wreg     unsigned char 
  5372 ;; Auto vars:     Size  Location     Type
  5373 ;;  address         1    7[BANK0 ] unsigned char 
  5374 ;; Return value:  Size  Location     Type
  5375 ;;                  1    wreg      unsigned char 
  5376 ;; Registers used:
  5377 ;;		wreg, status,2, status,0, pclath, cstack
  5378 ;; Tracked objects:
  5379 ;;		On entry : 0/0
  5380 ;;		On exit  : 0/0
  5381 ;;		Unchanged: 0/0
  5382 ;; Data sizes:     COMMON   BANK0   BANK1   BANK3   BANK2
  5383 ;;      Params:         0       0       0       0       0
  5384 ;;      Locals:         0       1       0       0       0
  5385 ;;      Temps:          0       1       0       0       0
  5386 ;;      Totals:         0       2       0       0       0
  5387 ;;Total ram usage:        2 bytes
  5388 ;; Hardware stack levels used:    1
  5389 ;; Hardware stack levels required when called:    4
  5390 ;; This function calls:
  5391 ;;		_i2c_vid_wait
  5392 ;; This function is called by:
  5393 ;;		_eeprom_external_vid_write
  5394 ;;		_eeprom_external_vid_read
  5395 ;; This function uses a non-reentrant model
  5396 ;;
  5397                           
  5398                           
  5399                           ;psect for function _i2c_u8_master_write_slave_address_with_write_req
  5400  0D88                     _i2c_u8_master_write_slave_address_with_write_req:	
  5401                           
  5402                           ;incstack = 0
  5403                           ; Regs used in _i2c_u8_master_write_slave_address_with_write_req: [wreg+status,2+status,
      +                          0+pclath+cstack]
  5404                           ;i2c_u8_master_write_slave_address_with_write_req@address stored from wreg
  5405  0D88  1283               	bcf	3,5	;RP0=0, select bank0
  5406  0D89  1303               	bcf	3,6	;RP1=0, select bank0
  5407  0D8A  00D4               	movwf	i2c_u8_master_write_slave_address_with_write_req@address
  5408  0D8B                     l2132:	
  5409                           
  5410                           ;i2c.c: 72:     i2c_vid_wait();
  5411  0D8B  120A  158A  2513  120A  158A  	fcall	_i2c_vid_wait
  5412  0D90                     l2134:	
  5413                           
  5414                           ;i2c.c: 74:     SSPBUF = (address << 1);
  5415  0D90  1283               	bcf	3,5	;RP0=0, select bank0
  5416  0D91  1303               	bcf	3,6	;RP1=0, select bank0
  5417  0D92  0854               	movf	i2c_u8_master_write_slave_address_with_write_req@address,w
  5418  0D93  00D3               	movwf	??_i2c_u8_master_write_slave_address_with_write_req
  5419  0D94  0753               	addwf	??_i2c_u8_master_write_slave_address_with_write_req,w
  5420  0D95  0093               	movwf	19	;volatile
  5421  0D96                     l393:	
  5422                           ;i2c.c: 76:     while(!SSPIF);
  5423                           
  5424  0D96  1D8C               	btfss	12,3	;volatile
  5425  0D97  2D99               	goto	u1301
  5426  0D98  2D9A               	goto	u1300
  5427  0D99                     u1301:	
  5428  0D99  2D96               	goto	l393
  5429  0D9A                     u1300:	
  5430  0D9A                     l395:	
  5431                           
  5432                           ;i2c.c: 78:     SSPIF = 0;
  5433  0D9A  118C               	bcf	12,3	;volatile
  5434  0D9B                     l2136:	
  5435                           
  5436                           ;i2c.c: 79:     return ACKSTAT;
  5437  0D9B  3000               	movlw	0
  5438  0D9C  1683               	bsf	3,5	;RP0=1, select bank1
  5439  0D9D  1303               	bcf	3,6	;RP1=0, select bank1
  5440  0D9E  1B11               	btfsc	17,6	;volatile
  5441  0D9F  3001               	movlw	1
  5442  0DA0                     l396:	
  5443  0DA0  0008               	return
  5444  0DA1                     __end_of_i2c_u8_master_write_slave_address_with_write_req:	
  5445                           
  5446                           	psect	text32
  5447  0D32                     __ptext32:	
  5448 ;; *************** function _i2c_u8_master_write_slave_address_with_read_req *****************
  5449 ;; Defined at:
  5450 ;;		line 82 in file "i2c.c"
  5451 ;; Parameters:    Size  Location     Type
  5452 ;;  address         1    wreg     unsigned char 
  5453 ;; Auto vars:     Size  Location     Type
  5454 ;;  address         1    6[BANK0 ] unsigned char 
  5455 ;; Return value:  Size  Location     Type
  5456 ;;                  1    wreg      unsigned char 
  5457 ;; Registers used:
  5458 ;;		wreg, status,2, status,0, pclath, cstack
  5459 ;; Tracked objects:
  5460 ;;		On entry : 0/0
  5461 ;;		On exit  : 0/0
  5462 ;;		Unchanged: 0/0
  5463 ;; Data sizes:     COMMON   BANK0   BANK1   BANK3   BANK2
  5464 ;;      Params:         0       0       0       0       0
  5465 ;;      Locals:         0       1       0       0       0
  5466 ;;      Temps:          0       0       0       0       0
  5467 ;;      Totals:         0       1       0       0       0
  5468 ;;Total ram usage:        1 bytes
  5469 ;; Hardware stack levels used:    1
  5470 ;; Hardware stack levels required when called:    4
  5471 ;; This function calls:
  5472 ;;		_i2c_vid_wait
  5473 ;; This function is called by:
  5474 ;;		_eeprom_external_vid_read
  5475 ;; This function uses a non-reentrant model
  5476 ;;
  5477                           
  5478                           
  5479                           ;psect for function _i2c_u8_master_write_slave_address_with_read_req
  5480  0D32                     _i2c_u8_master_write_slave_address_with_read_req:	
  5481                           
  5482                           ;incstack = 0
  5483                           ; Regs used in _i2c_u8_master_write_slave_address_with_read_req: [wreg+status,2+status,0
      +                          +pclath+cstack]
  5484                           ;i2c_u8_master_write_slave_address_with_read_req@address stored from wreg
  5485  0D32  1283               	bcf	3,5	;RP0=0, select bank0
  5486  0D33  1303               	bcf	3,6	;RP1=0, select bank0
  5487  0D34  00D3               	movwf	i2c_u8_master_write_slave_address_with_read_req@address
  5488  0D35                     l2294:	
  5489                           
  5490                           ;i2c.c: 83:     i2c_vid_wait();
  5491  0D35  120A  158A  2513  120A  158A  	fcall	_i2c_vid_wait
  5492  0D3A                     l2296:	
  5493                           
  5494                           ;i2c.c: 85:     SSPBUF = ( (address << 1) | 1);
  5495  0D3A  1403               	setc
  5496  0D3B  1283               	bcf	3,5	;RP0=0, select bank0
  5497  0D3C  1303               	bcf	3,6	;RP1=0, select bank0
  5498  0D3D  0D53               	rlf	i2c_u8_master_write_slave_address_with_read_req@address,w
  5499  0D3E  0093               	movwf	19	;volatile
  5500  0D3F                     l399:	
  5501                           ;i2c.c: 87:     while(!SSPIF);
  5502                           
  5503  0D3F  1D8C               	btfss	12,3	;volatile
  5504  0D40  2D42               	goto	u1531
  5505  0D41  2D43               	goto	u1530
  5506  0D42                     u1531:	
  5507  0D42  2D3F               	goto	l399
  5508  0D43                     u1530:	
  5509  0D43                     l401:	
  5510                           
  5511                           ;i2c.c: 89:     SSPIF = 0;
  5512  0D43  118C               	bcf	12,3	;volatile
  5513  0D44                     l402:	
  5514                           ;i2c.c: 90:     return ACKSTAT;;	Return value of _i2c_u8_master_write_slave_address_with
      +                          _read_req is never used
  5515                           
  5516  0D44  0008               	return
  5517  0D45                     __end_of_i2c_u8_master_write_slave_address_with_read_req:	
  5518                           
  5519                           	psect	text33
  5520  0D20                     __ptext33:	
  5521 ;; *************** function _i2c_u8_master_write_byte *****************
  5522 ;; Defined at:
  5523 ;;		line 93 in file "i2c.c"
  5524 ;; Parameters:    Size  Location     Type
  5525 ;;  data            1    wreg     unsigned char 
  5526 ;; Auto vars:     Size  Location     Type
  5527 ;;  data            1    6[BANK0 ] unsigned char 
  5528 ;; Return value:  Size  Location     Type
  5529 ;;                  1    wreg      unsigned char 
  5530 ;; Registers used:
  5531 ;;		wreg, status,2, status,0, pclath, cstack
  5532 ;; Tracked objects:
  5533 ;;		On entry : 0/0
  5534 ;;		On exit  : 0/0
  5535 ;;		Unchanged: 0/0
  5536 ;; Data sizes:     COMMON   BANK0   BANK1   BANK3   BANK2
  5537 ;;      Params:         0       0       0       0       0
  5538 ;;      Locals:         0       1       0       0       0
  5539 ;;      Temps:          0       0       0       0       0
  5540 ;;      Totals:         0       1       0       0       0
  5541 ;;Total ram usage:        1 bytes
  5542 ;; Hardware stack levels used:    1
  5543 ;; Hardware stack levels required when called:    4
  5544 ;; This function calls:
  5545 ;;		_i2c_vid_wait
  5546 ;; This function is called by:
  5547 ;;		_eeprom_external_vid_write
  5548 ;;		_eeprom_external_vid_read
  5549 ;; This function uses a non-reentrant model
  5550 ;;
  5551                           
  5552                           
  5553                           ;psect for function _i2c_u8_master_write_byte
  5554  0D20                     _i2c_u8_master_write_byte:	
  5555                           
  5556                           ;incstack = 0
  5557                           ; Regs used in _i2c_u8_master_write_byte: [wreg+status,2+status,0+pclath+cstack]
  5558                           ;i2c_u8_master_write_byte@data stored from wreg
  5559  0D20  1283               	bcf	3,5	;RP0=0, select bank0
  5560  0D21  1303               	bcf	3,6	;RP1=0, select bank0
  5561  0D22  00D3               	movwf	i2c_u8_master_write_byte@data
  5562  0D23                     l2140:	
  5563                           
  5564                           ;i2c.c: 94:     i2c_vid_wait();
  5565  0D23  120A  158A  2513  120A  158A  	fcall	_i2c_vid_wait
  5566  0D28                     l2142:	
  5567                           
  5568                           ;i2c.c: 95:     SSPBUF = data;
  5569  0D28  1283               	bcf	3,5	;RP0=0, select bank0
  5570  0D29  1303               	bcf	3,6	;RP1=0, select bank0
  5571  0D2A  0853               	movf	i2c_u8_master_write_byte@data,w
  5572  0D2B  0093               	movwf	19	;volatile
  5573  0D2C                     l405:	
  5574                           ;i2c.c: 97:     while(!SSPIF);
  5575                           
  5576  0D2C  1D8C               	btfss	12,3	;volatile
  5577  0D2D  2D2F               	goto	u1311
  5578  0D2E  2D30               	goto	u1310
  5579  0D2F                     u1311:	
  5580  0D2F  2D2C               	goto	l405
  5581  0D30                     u1310:	
  5582  0D30                     l407:	
  5583                           
  5584                           ;i2c.c: 99:     SSPIF = 0;
  5585  0D30  118C               	bcf	12,3	;volatile
  5586  0D31                     l408:	
  5587                           ;i2c.c: 100:     return ACKSTAT;;	Return value of _i2c_u8_master_write_byte is never use
      +                          d
  5588                           
  5589  0D31  0008               	return
  5590  0D32                     __end_of_i2c_u8_master_write_byte:	
  5591                           
  5592                           	psect	text34
  5593  0D5A                     __ptext34:	
  5594 ;; *************** function _i2c_u8_master_read_byte *****************
  5595 ;; Defined at:
  5596 ;;		line 103 in file "i2c.c"
  5597 ;; Parameters:    Size  Location     Type
  5598 ;;		None
  5599 ;; Auto vars:     Size  Location     Type
  5600 ;;		None
  5601 ;; Return value:  Size  Location     Type
  5602 ;;                  1    wreg      unsigned char 
  5603 ;; Registers used:
  5604 ;;		wreg, status,2, status,0, pclath, cstack
  5605 ;; Tracked objects:
  5606 ;;		On entry : 0/0
  5607 ;;		On exit  : 0/0
  5608 ;;		Unchanged: 0/0
  5609 ;; Data sizes:     COMMON   BANK0   BANK1   BANK3   BANK2
  5610 ;;      Params:         0       0       0       0       0
  5611 ;;      Locals:         0       0       0       0       0
  5612 ;;      Temps:          0       0       0       0       0
  5613 ;;      Totals:         0       0       0       0       0
  5614 ;;Total ram usage:        0 bytes
  5615 ;; Hardware stack levels used:    1
  5616 ;; Hardware stack levels required when called:    4
  5617 ;; This function calls:
  5618 ;;		_i2c_vid_wait
  5619 ;; This function is called by:
  5620 ;;		_eeprom_external_vid_read
  5621 ;; This function uses a non-reentrant model
  5622 ;;
  5623                           
  5624                           
  5625                           ;psect for function _i2c_u8_master_read_byte
  5626  0D5A                     _i2c_u8_master_read_byte:	
  5627  0D5A                     l2298:	
  5628                           ;incstack = 0
  5629                           ; Regs used in _i2c_u8_master_read_byte: [wreg+status,2+status,0+pclath+cstack]
  5630                           
  5631                           
  5632                           ;i2c.c: 104:     i2c_vid_wait();
  5633  0D5A  120A  158A  2513  120A  158A  	fcall	_i2c_vid_wait
  5634  0D5F                     l2300:	
  5635                           
  5636                           ;i2c.c: 106:     RCEN = 1;
  5637  0D5F  1683               	bsf	3,5	;RP0=1, select bank1
  5638  0D60  1303               	bcf	3,6	;RP1=0, select bank1
  5639  0D61  1591               	bsf	17,3	;volatile
  5640  0D62                     l411:	
  5641                           ;i2c.c: 108:     while(!SSPIF);
  5642                           
  5643  0D62  1283               	bcf	3,5	;RP0=0, select bank0
  5644  0D63  1D8C               	btfss	12,3	;volatile
  5645  0D64  2D66               	goto	u1541
  5646  0D65  2D67               	goto	u1540
  5647  0D66                     u1541:	
  5648  0D66  2D62               	goto	l411
  5649  0D67                     u1540:	
  5650  0D67                     l413:	
  5651                           
  5652                           ;i2c.c: 110:     SSPIF = 0;
  5653  0D67  118C               	bcf	12,3	;volatile
  5654  0D68                     l2302:	
  5655                           
  5656                           ;i2c.c: 111:     i2c_vid_wait();
  5657  0D68  120A  158A  2513  120A  158A  	fcall	_i2c_vid_wait
  5658  0D6D                     l2304:	
  5659                           
  5660                           ;i2c.c: 112:     return SSPBUF;
  5661  0D6D  1283               	bcf	3,5	;RP0=0, select bank0
  5662  0D6E  1303               	bcf	3,6	;RP1=0, select bank0
  5663  0D6F  0813               	movf	19,w	;volatile
  5664  0D70                     l414:	
  5665  0D70  0008               	return
  5666  0D71                     __end_of_i2c_u8_master_read_byte:	
  5667                           
  5668                           	psect	text35
  5669  0D13                     __ptext35:	
  5670 ;; *************** function _i2c_vid_wait *****************
  5671 ;; Defined at:
  5672 ;;		line 55 in file "i2c.c"
  5673 ;; Parameters:    Size  Location     Type
  5674 ;;		None
  5675 ;; Auto vars:     Size  Location     Type
  5676 ;;		None
  5677 ;; Return value:  Size  Location     Type
  5678 ;;                  1    wreg      void 
  5679 ;; Registers used:
  5680 ;;		wreg, status,2
  5681 ;; Tracked objects:
  5682 ;;		On entry : 0/0
  5683 ;;		On exit  : 0/0
  5684 ;;		Unchanged: 0/0
  5685 ;; Data sizes:     COMMON   BANK0   BANK1   BANK3   BANK2
  5686 ;;      Params:         0       0       0       0       0
  5687 ;;      Locals:         0       0       0       0       0
  5688 ;;      Temps:          0       0       0       0       0
  5689 ;;      Totals:         0       0       0       0       0
  5690 ;;Total ram usage:        0 bytes
  5691 ;; Hardware stack levels used:    1
  5692 ;; Hardware stack levels required when called:    3
  5693 ;; This function calls:
  5694 ;;		Nothing
  5695 ;; This function is called by:
  5696 ;;		_i2c_vid_start
  5697 ;;		_i2c_vid_stop
  5698 ;;		_i2c_vid_restart
  5699 ;;		_i2c_vid_nack
  5700 ;;		_i2c_u8_master_write_slave_address_with_write_req
  5701 ;;		_i2c_u8_master_write_slave_address_with_read_req
  5702 ;;		_i2c_u8_master_write_byte
  5703 ;;		_i2c_u8_master_read_byte
  5704 ;;		_i2c_vid_ack
  5705 ;; This function uses a non-reentrant model
  5706 ;;
  5707                           
  5708                           
  5709                           ;psect for function _i2c_vid_wait
  5710  0D13                     _i2c_vid_wait:	
  5711  0D13                     l2070:	
  5712                           ;incstack = 0
  5713                           ; Regs used in _i2c_vid_wait: [wreg+status,2]
  5714                           
  5715  0D13                     l381:	
  5716                           ;i2c.c: 56:     while ((SSPSTAT & 0x04) || (SSPCON2 & 0x1F));
  5717                           
  5718  0D13  1683               	bsf	3,5	;RP0=1, select bank1
  5719  0D14  1303               	bcf	3,6	;RP1=0, select bank1
  5720  0D15  1914               	btfsc	20,2	;volatile
  5721  0D16  2D18               	goto	u1281
  5722  0D17  2D19               	goto	u1280
  5723  0D18                     u1281:	
  5724  0D18  2D13               	goto	l381
  5725  0D19                     u1280:	
  5726  0D19                     l2072:	
  5727  0D19  0811               	movf	17,w	;volatile
  5728  0D1A  391F               	andlw	31
  5729  0D1B  1D03               	btfss	3,2
  5730  0D1C  2D1E               	goto	u1291
  5731  0D1D  2D1F               	goto	u1290
  5732  0D1E                     u1291:	
  5733  0D1E  2D13               	goto	l381
  5734  0D1F                     u1290:	
  5735  0D1F                     l384:	
  5736  0D1F  0008               	return
  5737  0D20                     __end_of_i2c_vid_wait:	
  5738                           
  5739                           	psect	text36
  5740  0050                     __ptext36:	
  5741 ;; *************** function _dio_vid_set_pin_direction *****************
  5742 ;; Defined at:
  5743 ;;		line 116 in file "dio.c"
  5744 ;; Parameters:    Size  Location     Type
  5745 ;;  portNumber      1    wreg     unsigned char 
  5746 ;;  index           1    6[BANK0 ] unsigned char 
  5747 ;;  direction       1    7[BANK0 ] unsigned char 
  5748 ;; Auto vars:     Size  Location     Type
  5749 ;;  portNumber      1   10[BANK0 ] unsigned char 
  5750 ;; Return value:  Size  Location     Type
  5751 ;;                  1    wreg      void 
  5752 ;; Registers used:
  5753 ;;		wreg, fsr0l, fsr0h, status,2, status,0
  5754 ;; Tracked objects:
  5755 ;;		On entry : 0/0
  5756 ;;		On exit  : 0/0
  5757 ;;		Unchanged: 0/0
  5758 ;; Data sizes:     COMMON   BANK0   BANK1   BANK3   BANK2
  5759 ;;      Params:         0       2       0       0       0
  5760 ;;      Locals:         0       1       0       0       0
  5761 ;;      Temps:          0       2       0       0       0
  5762 ;;      Totals:         0       5       0       0       0
  5763 ;;Total ram usage:        5 bytes
  5764 ;; Hardware stack levels used:    1
  5765 ;; Hardware stack levels required when called:    3
  5766 ;; This function calls:
  5767 ;;		Nothing
  5768 ;; This function is called by:
  5769 ;;		_ssd_vid_init
  5770 ;;		_i2c_vid_master_init
  5771 ;;		_counter_vid_init
  5772 ;;		_lcd_vid_init
  5773 ;;		_display_init
  5774 ;; This function uses a non-reentrant model
  5775 ;;
  5776                           
  5777                           
  5778                           ;psect for function _dio_vid_set_pin_direction
  5779  0050                     _dio_vid_set_pin_direction:	
  5780                           
  5781                           ;incstack = 0
  5782                           ; Regs used in _dio_vid_set_pin_direction: [wreg-fsr0h+status,2+status,0]
  5783                           ;dio_vid_set_pin_direction@portNumber stored from wreg
  5784  0050  1283               	bcf	3,5	;RP0=0, select bank0
  5785  0051  1303               	bcf	3,6	;RP1=0, select bank0
  5786  0052  00D7               	movwf	dio_vid_set_pin_direction@portNumber
  5787  0053                     l2398:	
  5788                           
  5789                           ;dio.c: 117:  switch (portNumber) {
  5790  0053  292B               	goto	l2442
  5791  0054                     l2400:	
  5792                           
  5793                           ;dio.c: 119:   if (direction == 1)
  5794  0054  0354               	decf	dio_vid_set_pin_direction@direction,w
  5795  0055  1D03               	btfss	3,2
  5796  0056  2858               	goto	u1711
  5797  0057  2859               	goto	u1710
  5798  0058                     u1711:	
  5799  0058  2869               	goto	l2404
  5800  0059                     u1710:	
  5801  0059                     l2402:	
  5802                           
  5803                           ;dio.c: 120:    TRISA|=(1<<index);
  5804  0059  3001               	movlw	1
  5805  005A  00D5               	movwf	??_dio_vid_set_pin_direction
  5806  005B  0A53               	incf	dio_vid_set_pin_direction@index,w
  5807  005C  285F               	goto	u1724
  5808  005D                     u1725:	
  5809  005D  1003               	clrc
  5810  005E  0DD5               	rlf	??_dio_vid_set_pin_direction,f
  5811  005F                     u1724:	
  5812  005F  3EFF               	addlw	-1
  5813  0060  1D03               	skipz
  5814  0061  285D               	goto	u1725
  5815  0062  0855               	movf	??_dio_vid_set_pin_direction,w
  5816  0063  00D6               	movwf	??_dio_vid_set_pin_direction+1
  5817  0064  0856               	movf	??_dio_vid_set_pin_direction+1,w
  5818  0065  1683               	bsf	3,5	;RP0=1, select bank1
  5819  0066  1303               	bcf	3,6	;RP1=0, select bank1
  5820  0067  0485               	iorwf	5,f	;volatile
  5821  0068  2944               	goto	l129
  5822  0069                     l2404:	
  5823  0069  0854               	movf	dio_vid_set_pin_direction@direction,w
  5824  006A  1D03               	btfss	3,2
  5825  006B  286D               	goto	u1731
  5826  006C  286E               	goto	u1730
  5827  006D                     u1731:	
  5828  006D  2944               	goto	l129
  5829  006E                     u1730:	
  5830  006E                     l2406:	
  5831                           
  5832                           ;dio.c: 122:    TRISA&=~(1<<index);
  5833  006E  3001               	movlw	1
  5834  006F  00D5               	movwf	??_dio_vid_set_pin_direction
  5835  0070  0A53               	incf	dio_vid_set_pin_direction@index,w
  5836  0071  2874               	goto	u1744
  5837  0072                     u1745:	
  5838  0072  1003               	clrc
  5839  0073  0DD5               	rlf	??_dio_vid_set_pin_direction,f
  5840  0074                     u1744:	
  5841  0074  3EFF               	addlw	-1
  5842  0075  1D03               	skipz
  5843  0076  2872               	goto	u1745
  5844  0077  0855               	movf	??_dio_vid_set_pin_direction,w
  5845  0078  3AFF               	xorlw	255
  5846  0079  00D6               	movwf	??_dio_vid_set_pin_direction+1
  5847  007A  0856               	movf	??_dio_vid_set_pin_direction+1,w
  5848  007B  1683               	bsf	3,5	;RP0=1, select bank1
  5849  007C  1303               	bcf	3,6	;RP1=0, select bank1
  5850  007D  0585               	andwf	5,f	;volatile
  5851  007E  2944               	goto	l129
  5852  007F                     l2408:	
  5853                           
  5854                           ;dio.c: 125:   if (direction == 1)
  5855  007F  0354               	decf	dio_vid_set_pin_direction@direction,w
  5856  0080  1D03               	btfss	3,2
  5857  0081  2883               	goto	u1751
  5858  0082  2884               	goto	u1750
  5859  0083                     u1751:	
  5860  0083  2894               	goto	l2412
  5861  0084                     u1750:	
  5862  0084                     l2410:	
  5863                           
  5864                           ;dio.c: 126:    TRISB|=(1<<index);
  5865  0084  3001               	movlw	1
  5866  0085  00D5               	movwf	??_dio_vid_set_pin_direction
  5867  0086  0A53               	incf	dio_vid_set_pin_direction@index,w
  5868  0087  288A               	goto	u1764
  5869  0088                     u1765:	
  5870  0088  1003               	clrc
  5871  0089  0DD5               	rlf	??_dio_vid_set_pin_direction,f
  5872  008A                     u1764:	
  5873  008A  3EFF               	addlw	-1
  5874  008B  1D03               	skipz
  5875  008C  2888               	goto	u1765
  5876  008D  0855               	movf	??_dio_vid_set_pin_direction,w
  5877  008E  00D6               	movwf	??_dio_vid_set_pin_direction+1
  5878  008F  0856               	movf	??_dio_vid_set_pin_direction+1,w
  5879  0090  1683               	bsf	3,5	;RP0=1, select bank1
  5880  0091  1303               	bcf	3,6	;RP1=0, select bank1
  5881  0092  0486               	iorwf	6,f	;volatile
  5882  0093  2944               	goto	l129
  5883  0094                     l2412:	
  5884  0094  0854               	movf	dio_vid_set_pin_direction@direction,w
  5885  0095  1D03               	btfss	3,2
  5886  0096  2898               	goto	u1771
  5887  0097  2899               	goto	u1770
  5888  0098                     u1771:	
  5889  0098  2944               	goto	l129
  5890  0099                     u1770:	
  5891  0099                     l2414:	
  5892                           
  5893                           ;dio.c: 128:    TRISB&=~(1<<index);
  5894  0099  3001               	movlw	1
  5895  009A  00D5               	movwf	??_dio_vid_set_pin_direction
  5896  009B  0A53               	incf	dio_vid_set_pin_direction@index,w
  5897  009C  289F               	goto	u1784
  5898  009D                     u1785:	
  5899  009D  1003               	clrc
  5900  009E  0DD5               	rlf	??_dio_vid_set_pin_direction,f
  5901  009F                     u1784:	
  5902  009F  3EFF               	addlw	-1
  5903  00A0  1D03               	skipz
  5904  00A1  289D               	goto	u1785
  5905  00A2  0855               	movf	??_dio_vid_set_pin_direction,w
  5906  00A3  3AFF               	xorlw	255
  5907  00A4  00D6               	movwf	??_dio_vid_set_pin_direction+1
  5908  00A5  0856               	movf	??_dio_vid_set_pin_direction+1,w
  5909  00A6  1683               	bsf	3,5	;RP0=1, select bank1
  5910  00A7  1303               	bcf	3,6	;RP1=0, select bank1
  5911  00A8  0586               	andwf	6,f	;volatile
  5912  00A9  2944               	goto	l129
  5913  00AA                     l2416:	
  5914                           
  5915                           ;dio.c: 131:   if (direction == 1)
  5916  00AA  0354               	decf	dio_vid_set_pin_direction@direction,w
  5917  00AB  1D03               	btfss	3,2
  5918  00AC  28AE               	goto	u1791
  5919  00AD  28AF               	goto	u1790
  5920  00AE                     u1791:	
  5921  00AE  28BF               	goto	l2420
  5922  00AF                     u1790:	
  5923  00AF                     l2418:	
  5924                           
  5925                           ;dio.c: 132:    TRISC|=(1<<index);
  5926  00AF  3001               	movlw	1
  5927  00B0  00D5               	movwf	??_dio_vid_set_pin_direction
  5928  00B1  0A53               	incf	dio_vid_set_pin_direction@index,w
  5929  00B2  28B5               	goto	u1804
  5930  00B3                     u1805:	
  5931  00B3  1003               	clrc
  5932  00B4  0DD5               	rlf	??_dio_vid_set_pin_direction,f
  5933  00B5                     u1804:	
  5934  00B5  3EFF               	addlw	-1
  5935  00B6  1D03               	skipz
  5936  00B7  28B3               	goto	u1805
  5937  00B8  0855               	movf	??_dio_vid_set_pin_direction,w
  5938  00B9  00D6               	movwf	??_dio_vid_set_pin_direction+1
  5939  00BA  0856               	movf	??_dio_vid_set_pin_direction+1,w
  5940  00BB  1683               	bsf	3,5	;RP0=1, select bank1
  5941  00BC  1303               	bcf	3,6	;RP1=0, select bank1
  5942  00BD  0487               	iorwf	7,f	;volatile
  5943  00BE  2944               	goto	l129
  5944  00BF                     l2420:	
  5945  00BF  0854               	movf	dio_vid_set_pin_direction@direction,w
  5946  00C0  1D03               	btfss	3,2
  5947  00C1  28C3               	goto	u1811
  5948  00C2  28C4               	goto	u1810
  5949  00C3                     u1811:	
  5950  00C3  2944               	goto	l129
  5951  00C4                     u1810:	
  5952  00C4                     l2422:	
  5953                           
  5954                           ;dio.c: 134:    TRISC&=~(1<<index);
  5955  00C4  3001               	movlw	1
  5956  00C5  00D5               	movwf	??_dio_vid_set_pin_direction
  5957  00C6  0A53               	incf	dio_vid_set_pin_direction@index,w
  5958  00C7  28CA               	goto	u1824
  5959  00C8                     u1825:	
  5960  00C8  1003               	clrc
  5961  00C9  0DD5               	rlf	??_dio_vid_set_pin_direction,f
  5962  00CA                     u1824:	
  5963  00CA  3EFF               	addlw	-1
  5964  00CB  1D03               	skipz
  5965  00CC  28C8               	goto	u1825
  5966  00CD  0855               	movf	??_dio_vid_set_pin_direction,w
  5967  00CE  3AFF               	xorlw	255
  5968  00CF  00D6               	movwf	??_dio_vid_set_pin_direction+1
  5969  00D0  0856               	movf	??_dio_vid_set_pin_direction+1,w
  5970  00D1  1683               	bsf	3,5	;RP0=1, select bank1
  5971  00D2  1303               	bcf	3,6	;RP1=0, select bank1
  5972  00D3  0587               	andwf	7,f	;volatile
  5973  00D4  2944               	goto	l129
  5974  00D5                     l2424:	
  5975                           
  5976                           ;dio.c: 137:   if (direction == 1)
  5977  00D5  0354               	decf	dio_vid_set_pin_direction@direction,w
  5978  00D6  1D03               	btfss	3,2
  5979  00D7  28D9               	goto	u1831
  5980  00D8  28DA               	goto	u1830
  5981  00D9                     u1831:	
  5982  00D9  28EA               	goto	l2428
  5983  00DA                     u1830:	
  5984  00DA                     l2426:	
  5985                           
  5986                           ;dio.c: 138:    TRISD|=(1<<index);
  5987  00DA  3001               	movlw	1
  5988  00DB  00D5               	movwf	??_dio_vid_set_pin_direction
  5989  00DC  0A53               	incf	dio_vid_set_pin_direction@index,w
  5990  00DD  28E0               	goto	u1844
  5991  00DE                     u1845:	
  5992  00DE  1003               	clrc
  5993  00DF  0DD5               	rlf	??_dio_vid_set_pin_direction,f
  5994  00E0                     u1844:	
  5995  00E0  3EFF               	addlw	-1
  5996  00E1  1D03               	skipz
  5997  00E2  28DE               	goto	u1845
  5998  00E3  0855               	movf	??_dio_vid_set_pin_direction,w
  5999  00E4  00D6               	movwf	??_dio_vid_set_pin_direction+1
  6000  00E5  0856               	movf	??_dio_vid_set_pin_direction+1,w
  6001  00E6  1683               	bsf	3,5	;RP0=1, select bank1
  6002  00E7  1303               	bcf	3,6	;RP1=0, select bank1
  6003  00E8  0488               	iorwf	8,f	;volatile
  6004  00E9  2944               	goto	l129
  6005  00EA                     l2428:	
  6006  00EA  0854               	movf	dio_vid_set_pin_direction@direction,w
  6007  00EB  1D03               	btfss	3,2
  6008  00EC  28EE               	goto	u1851
  6009  00ED  28EF               	goto	u1850
  6010  00EE                     u1851:	
  6011  00EE  2944               	goto	l129
  6012  00EF                     u1850:	
  6013  00EF                     l2430:	
  6014                           
  6015                           ;dio.c: 140:    TRISD&=~(1<<index);
  6016  00EF  3001               	movlw	1
  6017  00F0  00D5               	movwf	??_dio_vid_set_pin_direction
  6018  00F1  0A53               	incf	dio_vid_set_pin_direction@index,w
  6019  00F2  28F5               	goto	u1864
  6020  00F3                     u1865:	
  6021  00F3  1003               	clrc
  6022  00F4  0DD5               	rlf	??_dio_vid_set_pin_direction,f
  6023  00F5                     u1864:	
  6024  00F5  3EFF               	addlw	-1
  6025  00F6  1D03               	skipz
  6026  00F7  28F3               	goto	u1865
  6027  00F8  0855               	movf	??_dio_vid_set_pin_direction,w
  6028  00F9  3AFF               	xorlw	255
  6029  00FA  00D6               	movwf	??_dio_vid_set_pin_direction+1
  6030  00FB  0856               	movf	??_dio_vid_set_pin_direction+1,w
  6031  00FC  1683               	bsf	3,5	;RP0=1, select bank1
  6032  00FD  1303               	bcf	3,6	;RP1=0, select bank1
  6033  00FE  0588               	andwf	8,f	;volatile
  6034  00FF  2944               	goto	l129
  6035  0100                     l2432:	
  6036                           
  6037                           ;dio.c: 143:   if (direction == 1)
  6038  0100  0354               	decf	dio_vid_set_pin_direction@direction,w
  6039  0101  1D03               	btfss	3,2
  6040  0102  2904               	goto	u1871
  6041  0103  2905               	goto	u1870
  6042  0104                     u1871:	
  6043  0104  2915               	goto	l2436
  6044  0105                     u1870:	
  6045  0105                     l2434:	
  6046                           
  6047                           ;dio.c: 144:    TRISE|=(1<<index);
  6048  0105  3001               	movlw	1
  6049  0106  00D5               	movwf	??_dio_vid_set_pin_direction
  6050  0107  0A53               	incf	dio_vid_set_pin_direction@index,w
  6051  0108  290B               	goto	u1884
  6052  0109                     u1885:	
  6053  0109  1003               	clrc
  6054  010A  0DD5               	rlf	??_dio_vid_set_pin_direction,f
  6055  010B                     u1884:	
  6056  010B  3EFF               	addlw	-1
  6057  010C  1D03               	skipz
  6058  010D  2909               	goto	u1885
  6059  010E  0855               	movf	??_dio_vid_set_pin_direction,w
  6060  010F  00D6               	movwf	??_dio_vid_set_pin_direction+1
  6061  0110  0856               	movf	??_dio_vid_set_pin_direction+1,w
  6062  0111  1683               	bsf	3,5	;RP0=1, select bank1
  6063  0112  1303               	bcf	3,6	;RP1=0, select bank1
  6064  0113  0489               	iorwf	9,f	;volatile
  6065  0114  2944               	goto	l129
  6066  0115                     l2436:	
  6067  0115  0854               	movf	dio_vid_set_pin_direction@direction,w
  6068  0116  1D03               	btfss	3,2
  6069  0117  2919               	goto	u1891
  6070  0118  291A               	goto	u1890
  6071  0119                     u1891:	
  6072  0119  2944               	goto	l129
  6073  011A                     u1890:	
  6074  011A                     l2438:	
  6075                           
  6076                           ;dio.c: 146:    TRISE&=~(1<<index);
  6077  011A  3001               	movlw	1
  6078  011B  00D5               	movwf	??_dio_vid_set_pin_direction
  6079  011C  0A53               	incf	dio_vid_set_pin_direction@index,w
  6080  011D  2920               	goto	u1904
  6081  011E                     u1905:	
  6082  011E  1003               	clrc
  6083  011F  0DD5               	rlf	??_dio_vid_set_pin_direction,f
  6084  0120                     u1904:	
  6085  0120  3EFF               	addlw	-1
  6086  0121  1D03               	skipz
  6087  0122  291E               	goto	u1905
  6088  0123  0855               	movf	??_dio_vid_set_pin_direction,w
  6089  0124  3AFF               	xorlw	255
  6090  0125  00D6               	movwf	??_dio_vid_set_pin_direction+1
  6091  0126  0856               	movf	??_dio_vid_set_pin_direction+1,w
  6092  0127  1683               	bsf	3,5	;RP0=1, select bank1
  6093  0128  1303               	bcf	3,6	;RP1=0, select bank1
  6094  0129  0589               	andwf	9,f	;volatile
  6095  012A  2944               	goto	l129
  6096  012B                     l2442:	
  6097  012B  0857               	movf	dio_vid_set_pin_direction@portNumber,w
  6098  012C  00D5               	movwf	??_dio_vid_set_pin_direction
  6099  012D  01D6               	clrf	??_dio_vid_set_pin_direction+1
  6100                           
  6101                           ; Switch on 2 bytes has been partitioned into a top level switch of size 1, and 1 sub-sw
      +                          itches
  6102                           ; Switch size 1, requested type "simple"
  6103                           ; Number of cases is 1, Range of values is 0 to 0
  6104                           ; switch strategies available:
  6105                           ; Name         Instructions Cycles
  6106                           ; simple_byte            4     3 (average)
  6107                           ; direct_byte           11     8 (fixed)
  6108                           ; jumptable            260     6 (fixed)
  6109                           ;	Chosen strategy is simple_byte
  6110  012E  0856               	movf	??_dio_vid_set_pin_direction+1,w
  6111  012F  3A00               	xorlw	0	; case 0
  6112  0130  1903               	skipnz
  6113  0131  2933               	goto	l3058
  6114  0132  2944               	goto	l129
  6115  0133                     l3058:	
  6116                           
  6117                           ; Switch size 1, requested type "simple"
  6118                           ; Number of cases is 5, Range of values is 0 to 4
  6119                           ; switch strategies available:
  6120                           ; Name         Instructions Cycles
  6121                           ; simple_byte           16     9 (average)
  6122                           ; direct_byte           23     8 (fixed)
  6123                           ; jumptable            260     6 (fixed)
  6124                           ;	Chosen strategy is simple_byte
  6125  0133  0855               	movf	??_dio_vid_set_pin_direction,w
  6126  0134  3A00               	xorlw	0	; case 0
  6127  0135  1903               	skipnz
  6128  0136  2854               	goto	l2400
  6129  0137  3A01               	xorlw	1	; case 1
  6130  0138  1903               	skipnz
  6131  0139  287F               	goto	l2408
  6132  013A  3A03               	xorlw	3	; case 2
  6133  013B  1903               	skipnz
  6134  013C  28AA               	goto	l2416
  6135  013D  3A01               	xorlw	1	; case 3
  6136  013E  1903               	skipnz
  6137  013F  28D5               	goto	l2424
  6138  0140  3A07               	xorlw	7	; case 4
  6139  0141  1903               	skipnz
  6140  0142  2900               	goto	l2432
  6141  0143  2944               	goto	l129
  6142  0144                     l129:	
  6143  0144  0008               	return
  6144  0145                     __end_of_dio_vid_set_pin_direction:	
  6145                           
  6146                           	psect	text37
  6147  0708                     __ptext37:	
  6148 ;; *************** function ___awmod *****************
  6149 ;; Defined at:
  6150 ;;		line 5 in file "C:\Program Files (x86)\Microchip\xc8\v2.10\pic\sources\c90\common\awmod.c"
  6151 ;; Parameters:    Size  Location     Type
  6152 ;;  divisor         2    6[BANK0 ] int 
  6153 ;;  dividend        2    8[BANK0 ] int 
  6154 ;; Auto vars:     Size  Location     Type
  6155 ;;  sign            1   12[BANK0 ] unsigned char 
  6156 ;;  counter         1   11[BANK0 ] unsigned char 
  6157 ;; Return value:  Size  Location     Type
  6158 ;;                  2    6[BANK0 ] int 
  6159 ;; Registers used:
  6160 ;;		wreg, status,2, status,0
  6161 ;; Tracked objects:
  6162 ;;		On entry : 0/0
  6163 ;;		On exit  : 0/0
  6164 ;;		Unchanged: 0/0
  6165 ;; Data sizes:     COMMON   BANK0   BANK1   BANK3   BANK2
  6166 ;;      Params:         0       4       0       0       0
  6167 ;;      Locals:         0       2       0       0       0
  6168 ;;      Temps:          0       1       0       0       0
  6169 ;;      Totals:         0       7       0       0       0
  6170 ;;Total ram usage:        7 bytes
  6171 ;; Hardware stack levels used:    1
  6172 ;; Hardware stack levels required when called:    3
  6173 ;; This function calls:
  6174 ;;		Nothing
  6175 ;; This function is called by:
  6176 ;;		_counter_vid_init
  6177 ;; This function uses a non-reentrant model
  6178 ;;
  6179                           
  6180                           
  6181                           ;psect for function ___awmod
  6182  0708                     ___awmod:	
  6183  0708                     l2558:	
  6184                           ;incstack = 0
  6185                           ; Regs used in ___awmod: [wreg+status,2+status,0]
  6186                           
  6187  0708  1283               	bcf	3,5	;RP0=0, select bank0
  6188  0709  1303               	bcf	3,6	;RP1=0, select bank0
  6189  070A  01D9               	clrf	___awmod@sign
  6190  070B                     l2560:	
  6191  070B  1FD6               	btfss	___awmod@dividend+1,7
  6192  070C  2F0E               	goto	u2081
  6193  070D  2F0F               	goto	u2080
  6194  070E                     u2081:	
  6195  070E  2F16               	goto	l2566
  6196  070F                     u2080:	
  6197  070F                     l2562:	
  6198  070F  09D5               	comf	___awmod@dividend,f
  6199  0710  09D6               	comf	___awmod@dividend+1,f
  6200  0711  0AD5               	incf	___awmod@dividend,f
  6201  0712  1903               	skipnz
  6202  0713  0AD6               	incf	___awmod@dividend+1,f
  6203  0714                     l2564:	
  6204  0714  01D9               	clrf	___awmod@sign
  6205  0715  0AD9               	incf	___awmod@sign,f
  6206  0716                     l2566:	
  6207  0716  1FD4               	btfss	___awmod@divisor+1,7
  6208  0717  2F19               	goto	u2091
  6209  0718  2F1A               	goto	u2090
  6210  0719                     u2091:	
  6211  0719  2F1F               	goto	l2570
  6212  071A                     u2090:	
  6213  071A                     l2568:	
  6214  071A  09D3               	comf	___awmod@divisor,f
  6215  071B  09D4               	comf	___awmod@divisor+1,f
  6216  071C  0AD3               	incf	___awmod@divisor,f
  6217  071D  1903               	skipnz
  6218  071E  0AD4               	incf	___awmod@divisor+1,f
  6219  071F                     l2570:	
  6220  071F  0853               	movf	___awmod@divisor,w
  6221  0720  0454               	iorwf	___awmod@divisor+1,w
  6222  0721  1903               	btfsc	3,2
  6223  0722  2F24               	goto	u2101
  6224  0723  2F25               	goto	u2100
  6225  0724                     u2101:	
  6226  0724  2F54               	goto	l2588
  6227  0725                     u2100:	
  6228  0725                     l2572:	
  6229  0725  01D8               	clrf	___awmod@counter
  6230  0726  0AD8               	incf	___awmod@counter,f
  6231  0727  2F33               	goto	l2578
  6232  0728                     l2574:	
  6233  0728  3001               	movlw	1
  6234  0729                     u2115:	
  6235  0729  1003               	clrc
  6236  072A  0DD3               	rlf	___awmod@divisor,f
  6237  072B  0DD4               	rlf	___awmod@divisor+1,f
  6238  072C  3EFF               	addlw	-1
  6239  072D  1D03               	skipz
  6240  072E  2F29               	goto	u2115
  6241  072F                     l2576:	
  6242  072F  3001               	movlw	1
  6243  0730  00D7               	movwf	??___awmod
  6244  0731  0857               	movf	??___awmod,w
  6245  0732  07D8               	addwf	___awmod@counter,f
  6246  0733                     l2578:	
  6247  0733  1FD4               	btfss	___awmod@divisor+1,7
  6248  0734  2F36               	goto	u2121
  6249  0735  2F37               	goto	u2120
  6250  0736                     u2121:	
  6251  0736  2F28               	goto	l2574
  6252  0737                     u2120:	
  6253  0737                     l2580:	
  6254  0737  0854               	movf	___awmod@divisor+1,w
  6255  0738  0256               	subwf	___awmod@dividend+1,w
  6256  0739  1D03               	skipz
  6257  073A  2F3D               	goto	u2135
  6258  073B  0853               	movf	___awmod@divisor,w
  6259  073C  0255               	subwf	___awmod@dividend,w
  6260  073D                     u2135:	
  6261  073D  1C03               	skipc
  6262  073E  2F40               	goto	u2131
  6263  073F  2F41               	goto	u2130
  6264  0740                     u2131:	
  6265  0740  2F47               	goto	l2584
  6266  0741                     u2130:	
  6267  0741                     l2582:	
  6268  0741  0853               	movf	___awmod@divisor,w
  6269  0742  02D5               	subwf	___awmod@dividend,f
  6270  0743  0854               	movf	___awmod@divisor+1,w
  6271  0744  1C03               	skipc
  6272  0745  03D6               	decf	___awmod@dividend+1,f
  6273  0746  02D6               	subwf	___awmod@dividend+1,f
  6274  0747                     l2584:	
  6275  0747  3001               	movlw	1
  6276  0748                     u2145:	
  6277  0748  1003               	clrc
  6278  0749  0CD4               	rrf	___awmod@divisor+1,f
  6279  074A  0CD3               	rrf	___awmod@divisor,f
  6280  074B  3EFF               	addlw	-1
  6281  074C  1D03               	skipz
  6282  074D  2F48               	goto	u2145
  6283  074E                     l2586:	
  6284  074E  3001               	movlw	1
  6285  074F  02D8               	subwf	___awmod@counter,f
  6286  0750  1D03               	btfss	3,2
  6287  0751  2F53               	goto	u2151
  6288  0752  2F54               	goto	u2150
  6289  0753                     u2151:	
  6290  0753  2F37               	goto	l2580
  6291  0754                     u2150:	
  6292  0754                     l2588:	
  6293  0754  0859               	movf	___awmod@sign,w
  6294  0755  1903               	btfsc	3,2
  6295  0756  2F58               	goto	u2161
  6296  0757  2F59               	goto	u2160
  6297  0758                     u2161:	
  6298  0758  2F5E               	goto	l2592
  6299  0759                     u2160:	
  6300  0759                     l2590:	
  6301  0759  09D5               	comf	___awmod@dividend,f
  6302  075A  09D6               	comf	___awmod@dividend+1,f
  6303  075B  0AD5               	incf	___awmod@dividend,f
  6304  075C  1903               	skipnz
  6305  075D  0AD6               	incf	___awmod@dividend+1,f
  6306  075E                     l2592:	
  6307  075E  0856               	movf	___awmod@dividend+1,w
  6308  075F  00D4               	movwf	?___awmod+1
  6309  0760  0855               	movf	___awmod@dividend,w
  6310  0761  00D3               	movwf	?___awmod
  6311  0762                     l790:	
  6312  0762  0008               	return
  6313  0763                     __end_of___awmod:	
  6314                           
  6315                           	psect	text38
  6316  0763                     __ptext38:	
  6317 ;; *************** function _timer_isr *****************
  6318 ;; Defined at:
  6319 ;;		line 21 in file "timer.c"
  6320 ;; Parameters:    Size  Location     Type
  6321 ;;		None
  6322 ;; Auto vars:     Size  Location     Type
  6323 ;;		None
  6324 ;; Return value:  Size  Location     Type
  6325 ;;                  1    wreg      void 
  6326 ;; Registers used:
  6327 ;;		wreg, fsr0l, fsr0h, status,2, status,0, pclath, cstack
  6328 ;; Tracked objects:
  6329 ;;		On entry : 0/0
  6330 ;;		On exit  : 0/0
  6331 ;;		Unchanged: 0/0
  6332 ;; Data sizes:     COMMON   BANK0   BANK1   BANK3   BANK2
  6333 ;;      Params:         0       0       0       0       0
  6334 ;;      Locals:         0       0       0       0       0
  6335 ;;      Temps:          0       6       0       0       0
  6336 ;;      Totals:         0       6       0       0       0
  6337 ;;Total ram usage:        6 bytes
  6338 ;; Hardware stack levels used:    1
  6339 ;; Hardware stack levels required when called:    2
  6340 ;; This function calls:
  6341 ;;		Absolute function
  6342 ;;		_sch_update
  6343 ;; This function is called by:
  6344 ;;		Interrupt level 1
  6345 ;; This function uses a non-reentrant model
  6346 ;;
  6347                           
  6348                           
  6349                           ;psect for function _timer_isr
  6350  0763                     _timer_isr:	
  6351  0763                     i1l2792:	
  6352                           
  6353                           ;timer.c: 22:     if (TMR0IF == 1) {
  6354  0763  1D0B               	btfss	11,2	;volatile
  6355  0764  2F66               	goto	u240_21
  6356  0765  2F67               	goto	u240_20
  6357  0766                     u240_21:	
  6358  0766  2F6E               	goto	i1l2798
  6359  0767                     u240_20:	
  6360  0767                     i1l2794:	
  6361                           
  6362                           ;timer.c: 23:         TMR0IF = 0;
  6363  0767  110B               	bcf	11,2	;volatile
  6364  0768                     i1l2796:	
  6365                           
  6366                           ;timer.c: 24:         timer0_isr();
  6367  0768  087D               	movf	_timer0_isr,w
  6368  0769  120A  118A  2047  120A  118A  	fcall	i1fptable
  6369  076E                     i1l2798:	
  6370                           
  6371                           ;timer.c: 26:     if (((PIR1>>TMR1IF)&1) == 1) {
  6372  076E  1283               	bcf	3,5	;RP0=0, select bank0
  6373  076F  1303               	bcf	3,6	;RP1=0, select bank0
  6374  0770  080C               	movf	12,w	;volatile
  6375  0771  00CD               	movwf	??_timer_isr
  6376  0772  3000               	movlw	0
  6377  0773  180C               	btfsc	12,0	;volatile
  6378  0774  3001               	movlw	1
  6379  0775  3E01               	addlw	1
  6380  0776  2F79               	goto	u241_24
  6381  0777                     u241_25:	
  6382  0777  1003               	clrc
  6383  0778  0CCD               	rrf	??_timer_isr,f
  6384  0779                     u241_24:	
  6385  0779  3EFF               	addlw	-1
  6386  077A  1D03               	skipz
  6387  077B  2F77               	goto	u241_25
  6388  077C  1C4D               	btfss	??_timer_isr,0
  6389  077D  2F7F               	goto	u242_21
  6390  077E  2F80               	goto	u242_20
  6391  077F                     u242_21:	
  6392  077F  2F91               	goto	i1l303
  6393  0780                     u242_20:	
  6394  0780                     i1l2800:	
  6395                           
  6396                           ;timer.c: 28:         timer1_isr();
  6397  0780  3001               	movlw	1
  6398  0781  00CD               	movwf	??_timer_isr
  6399  0782  3000               	movlw	0
  6400  0783  180C               	btfsc	12,0	;volatile
  6401  0784  3001               	movlw	1
  6402  0785  3E01               	addlw	1
  6403  0786  2F89               	goto	u243_24
  6404  0787                     u243_25:	
  6405  0787  1003               	clrc
  6406  0788  0DCD               	rlf	??_timer_isr,f
  6407  0789                     u243_24:	
  6408  0789  3EFF               	addlw	-1
  6409  078A  1D03               	skipz
  6410  078B  2F87               	goto	u243_25
  6411  078C  084D               	movf	??_timer_isr,w
  6412  078D  3AFF               	xorlw	255
  6413  078E  00CE               	movwf	??_timer_isr+1
  6414  078F  084E               	movf	??_timer_isr+1,w
  6415  0790  058C               	andwf	12,f	;volatile
  6416  0791                     i1l303:	
  6417                           ;timer.c: 29:     }
  6418                           
  6419                           
  6420                           ;timer.c: 30:     if (((PIR1>>TMR2IF)&1) == 1) {
  6421  0791  080C               	movf	12,w	;volatile
  6422  0792  00CD               	movwf	??_timer_isr
  6423  0793  3000               	movlw	0
  6424  0794  188C               	btfsc	12,1	;volatile
  6425  0795  3001               	movlw	1
  6426  0796  3E01               	addlw	1
  6427  0797  2F9A               	goto	u244_24
  6428  0798                     u244_25:	
  6429  0798  1003               	clrc
  6430  0799  0CCD               	rrf	??_timer_isr,f
  6431  079A                     u244_24:	
  6432  079A  3EFF               	addlw	-1
  6433  079B  1D03               	skipz
  6434  079C  2F98               	goto	u244_25
  6435  079D  1C4D               	btfss	??_timer_isr,0
  6436  079E  2FA0               	goto	u245_21
  6437  079F  2FA1               	goto	u245_20
  6438  07A0                     u245_21:	
  6439  07A0  2FB2               	goto	i1l305
  6440  07A1                     u245_20:	
  6441  07A1                     i1l2802:	
  6442                           
  6443                           ;timer.c: 32:         timer2_isr();
  6444  07A1  3001               	movlw	1
  6445  07A2  00CD               	movwf	??_timer_isr
  6446  07A3  3000               	movlw	0
  6447  07A4  188C               	btfsc	12,1	;volatile
  6448  07A5  3001               	movlw	1
  6449  07A6  3E01               	addlw	1
  6450  07A7  2FAA               	goto	u246_24
  6451  07A8                     u246_25:	
  6452  07A8  1003               	clrc
  6453  07A9  0DCD               	rlf	??_timer_isr,f
  6454  07AA                     u246_24:	
  6455  07AA  3EFF               	addlw	-1
  6456  07AB  1D03               	skipz
  6457  07AC  2FA8               	goto	u246_25
  6458  07AD  084D               	movf	??_timer_isr,w
  6459  07AE  3AFF               	xorlw	255
  6460  07AF  00CE               	movwf	??_timer_isr+1
  6461  07B0  084E               	movf	??_timer_isr+1,w
  6462  07B1  058C               	andwf	12,f	;volatile
  6463  07B2                     i1l305:	
  6464  07B2  0852               	movf	??_timer_isr+5,w
  6465  07B3  00FF               	movwf	btemp+1
  6466  07B4  0851               	movf	??_timer_isr+4,w
  6467  07B5  008A               	movwf	10
  6468  07B6  0850               	movf	??_timer_isr+3,w
  6469  07B7  0084               	movwf	4
  6470  07B8  0E4F               	swapf	(??_timer_isr+2)^0,w
  6471  07B9  0083               	movwf	3
  6472  07BA  0EFE               	swapf	btemp,f
  6473  07BB  0E7E               	swapf	btemp,w
  6474  07BC  0009               	retfie
  6475  07BD                     __end_of_timer_isr:	
  6476                           
  6477                           	psect	intentry
  6478  0004                     __pintentry:	
  6479                           ;incstack = 0
  6480                           ; Regs used in _timer_isr: [wreg-fsr0h+status,2+status,0+pclath+cstack]
  6481                           
  6482  0004                     interrupt_function:	
  6483  007E                     saved_w	set	btemp
  6484  0004  00FE               	movwf	btemp
  6485  0005  0E03               	swapf	3,w
  6486  0006  1283               	bcf	3,5	;RP0=0, select bank0
  6487  0007  1303               	bcf	3,6	;RP1=0, select bank0
  6488  0008  00CF               	movwf	??_timer_isr+2
  6489  0009  0804               	movf	4,w
  6490  000A  00D0               	movwf	??_timer_isr+3
  6491  000B  080A               	movf	10,w
  6492  000C  00D1               	movwf	??_timer_isr+4
  6493  000D  087F               	movf	btemp+1,w
  6494  000E  00D2               	movwf	??_timer_isr+5
  6495  000F  120A  118A  2F63   	ljmp	_timer_isr
  6496                           
  6497                           	psect	text39
  6498  0226                     __ptext39:	
  6499 ;; *************** function _sch_update *****************
  6500 ;; Defined at:
  6501 ;;		line 29 in file "scheduler.c"
  6502 ;; Parameters:    Size  Location     Type
  6503 ;;		None
  6504 ;; Auto vars:     Size  Location     Type
  6505 ;;  index           1   10[COMMON] unsigned char 
  6506 ;; Return value:  Size  Location     Type
  6507 ;;                  1    wreg      void 
  6508 ;; Registers used:
  6509 ;;		wreg, fsr0l, fsr0h, status,2, status,0, pclath, cstack
  6510 ;; Tracked objects:
  6511 ;;		On entry : 0/0
  6512 ;;		On exit  : 0/0
  6513 ;;		Unchanged: 0/0
  6514 ;; Data sizes:     COMMON   BANK0   BANK1   BANK3   BANK2
  6515 ;;      Params:         0       0       0       0       0
  6516 ;;      Locals:         1       0       0       0       0
  6517 ;;      Temps:          6       0       0       0       0
  6518 ;;      Totals:         7       0       0       0       0
  6519 ;;Total ram usage:        7 bytes
  6520 ;; Hardware stack levels used:    1
  6521 ;; Hardware stack levels required when called:    1
  6522 ;; This function calls:
  6523 ;;		i1___bmul
  6524 ;; This function is called by:
  6525 ;;		_sch_vid_init
  6526 ;;		_timer_isr
  6527 ;; This function uses a non-reentrant model
  6528 ;;
  6529                           
  6530                           
  6531                           ;psect for function _sch_update
  6532  0226                     _sch_update:	
  6533  0226                     i1l2716:	
  6534                           ;incstack = 0
  6535                           ; Regs used in _sch_update: [wreg-fsr0h+status,2+status,0+pclath+cstack]
  6536                           
  6537                           
  6538                           ;scheduler.c: 30:     u8 index;;scheduler.c: 31:     for (index = 0; index < 3; index++)
      +                           {
  6539  0226  01FA               	clrf	sch_update@index
  6540  0227                     i1l2722:	
  6541                           
  6542                           ;scheduler.c: 33:         if (sch_tasks[index].taskFunction) {
  6543  0227  300D               	movlw	13
  6544  0228  00F4               	movwf	??_sch_update
  6545  0229  0874               	movf	??_sch_update,w
  6546  022A  00F0               	movwf	i1___bmul@multiplicand
  6547  022B  087A               	movf	sch_update@index,w
  6548  022C  120A  158A  2545  120A  118A  	fcall	i1___bmul
  6549  0231  3E20               	addlw	(low (_sch_tasks| 0))& (0+255)
  6550  0232  0084               	movwf	4
  6551  0233  1383               	bcf	3,7	;select IRP bank0
  6552  0234  0800               	movf	0,w
  6553  0235  1903               	btfsc	3,2
  6554  0236  2A38               	goto	u229_21
  6555  0237  2A39               	goto	u229_20
  6556  0238                     u229_21:	
  6557  0238  2AEA               	goto	i1l2732
  6558  0239                     u229_20:	
  6559  0239                     i1l2724:	
  6560                           
  6561                           ;scheduler.c: 34:             if (sch_tasks[index].delay == 0) {
  6562  0239  300D               	movlw	13
  6563  023A  00F4               	movwf	??_sch_update
  6564  023B  0874               	movf	??_sch_update,w
  6565  023C  00F0               	movwf	i1___bmul@multiplicand
  6566  023D  087A               	movf	sch_update@index,w
  6567  023E  120A  158A  2545  120A  118A  	fcall	i1___bmul
  6568  0243  3E21               	addlw	(low ((_sch_tasks| 0+1)))& (0+255)
  6569  0244  0084               	movwf	4
  6570  0245  1383               	bcf	3,7	;select IRP bank0
  6571  0246  0800               	movf	0,w
  6572  0247  00F5               	movwf	??_sch_update+1
  6573  0248  0A84               	incf	4,f
  6574  0249  0800               	movf	0,w
  6575  024A  00F6               	movwf	??_sch_update+2
  6576  024B  0A84               	incf	4,f
  6577  024C  0800               	movf	0,w
  6578  024D  00F7               	movwf	??_sch_update+3
  6579  024E  0A84               	incf	4,f
  6580  024F  0800               	movf	0,w
  6581  0250  00F8               	movwf	??_sch_update+4
  6582  0251  0878               	movf	??_sch_update+4,w
  6583  0252  0477               	iorwf	??_sch_update+3,w
  6584  0253  0476               	iorwf	??_sch_update+2,w
  6585  0254  0475               	iorwf	??_sch_update+1,w
  6586  0255  1D03               	skipz
  6587  0256  2A58               	goto	u230_21
  6588  0257  2A59               	goto	u230_20
  6589  0258                     u230_21:	
  6590  0258  2ACA               	goto	i1l2730
  6591  0259                     u230_20:	
  6592  0259                     i1l2726:	
  6593                           
  6594                           ;scheduler.c: 36:                 sch_tasks[index].runMe += 1;
  6595  0259  300D               	movlw	13
  6596  025A  00F4               	movwf	??_sch_update
  6597  025B  0874               	movf	??_sch_update,w
  6598  025C  00F0               	movwf	i1___bmul@multiplicand
  6599  025D  087A               	movf	sch_update@index,w
  6600  025E  120A  158A  2545  120A  118A  	fcall	i1___bmul
  6601  0263  3E29               	addlw	(low ((_sch_tasks| 0+9)))& (0+255)
  6602  0264  0084               	movwf	4
  6603  0265  3001               	movlw	1
  6604  0266  1383               	bcf	3,7	;select IRP bank0
  6605  0267  0780               	addwf	0,f
  6606  0268  0A84               	incf	4,f
  6607  0269  3000               	movlw	0
  6608  026A  1803               	skipnc
  6609  026B  3E01               	addlw	1
  6610  026C  1D03               	skipz
  6611  026D  0780               	addwf	0,f
  6612  026E  0A84               	incf	4,f
  6613  026F  3000               	movlw	0
  6614  0270  1803               	skipnc
  6615  0271  3E01               	addlw	1
  6616  0272  1D03               	skipz
  6617  0273  0780               	addwf	0,f
  6618  0274  0A84               	incf	4,f
  6619  0275  3000               	movlw	0
  6620  0276  1803               	skipnc
  6621  0277  3E01               	addlw	1
  6622  0278  0780               	addwf	0,f
  6623                           
  6624                           ;scheduler.c: 37:                 if (sch_tasks[index].period) {
  6625  0279  300D               	movlw	13
  6626  027A  00F4               	movwf	??_sch_update
  6627  027B  0874               	movf	??_sch_update,w
  6628  027C  00F0               	movwf	i1___bmul@multiplicand
  6629  027D  087A               	movf	sch_update@index,w
  6630  027E  120A  158A  2545  120A  118A  	fcall	i1___bmul
  6631  0283  3E25               	addlw	(low ((_sch_tasks| 0+5)))& (0+255)
  6632  0284  0084               	movwf	4
  6633  0285  1383               	bcf	3,7	;select IRP bank0
  6634  0286  0800               	movf	0,w
  6635  0287  00F5               	movwf	??_sch_update+1
  6636  0288  0A84               	incf	4,f
  6637  0289  0800               	movf	0,w
  6638  028A  00F6               	movwf	??_sch_update+2
  6639  028B  0A84               	incf	4,f
  6640  028C  0800               	movf	0,w
  6641  028D  00F7               	movwf	??_sch_update+3
  6642  028E  0A84               	incf	4,f
  6643  028F  0800               	movf	0,w
  6644  0290  00F8               	movwf	??_sch_update+4
  6645  0291  0878               	movf	??_sch_update+4,w
  6646  0292  0477               	iorwf	??_sch_update+3,w
  6647  0293  0476               	iorwf	??_sch_update+2,w
  6648  0294  0475               	iorwf	??_sch_update+1,w
  6649  0295  1903               	skipnz
  6650  0296  2A98               	goto	u231_21
  6651  0297  2A99               	goto	u231_20
  6652  0298                     u231_21:	
  6653  0298  2AEA               	goto	i1l2732
  6654  0299                     u231_20:	
  6655  0299                     i1l2728:	
  6656                           
  6657                           ;scheduler.c: 39:                     sch_tasks[index].delay = sch_tasks[index].period;
  6658  0299  300D               	movlw	13
  6659  029A  00F4               	movwf	??_sch_update
  6660  029B  0874               	movf	??_sch_update,w
  6661  029C  00F0               	movwf	i1___bmul@multiplicand
  6662  029D  087A               	movf	sch_update@index,w
  6663  029E  120A  158A  2545  120A  118A  	fcall	i1___bmul
  6664  02A3  3E25               	addlw	(low ((_sch_tasks| 0+5)))& (0+255)
  6665  02A4  0084               	movwf	4
  6666  02A5  1383               	bcf	3,7	;select IRP bank0
  6667  02A6  0800               	movf	0,w
  6668  02A7  00F5               	movwf	??_sch_update+1
  6669  02A8  0A84               	incf	4,f
  6670  02A9  0800               	movf	0,w
  6671  02AA  00F6               	movwf	??_sch_update+2
  6672  02AB  0A84               	incf	4,f
  6673  02AC  0800               	movf	0,w
  6674  02AD  00F7               	movwf	??_sch_update+3
  6675  02AE  0A84               	incf	4,f
  6676  02AF  0800               	movf	0,w
  6677  02B0  00F8               	movwf	??_sch_update+4
  6678  02B1  300D               	movlw	13
  6679  02B2  00F9               	movwf	??_sch_update+5
  6680  02B3  0879               	movf	??_sch_update+5,w
  6681  02B4  00F0               	movwf	i1___bmul@multiplicand
  6682  02B5  087A               	movf	sch_update@index,w
  6683  02B6  120A  158A  2545  120A  118A  	fcall	i1___bmul
  6684  02BB  3E21               	addlw	(low ((_sch_tasks| 0+1)))& (0+255)
  6685  02BC  0084               	movwf	4
  6686  02BD  0875               	movf	??_sch_update+1,w
  6687  02BE  1383               	bcf	3,7	;select IRP bank0
  6688  02BF  0080               	movwf	0
  6689  02C0  0A84               	incf	4,f
  6690  02C1  0876               	movf	??_sch_update+2,w
  6691  02C2  0080               	movwf	0
  6692  02C3  0A84               	incf	4,f
  6693  02C4  0877               	movf	??_sch_update+3,w
  6694  02C5  0080               	movwf	0
  6695  02C6  0A84               	incf	4,f
  6696  02C7  0878               	movf	??_sch_update+4,w
  6697  02C8  0080               	movwf	0
  6698  02C9  2AEA               	goto	i1l2732
  6699  02CA                     i1l2730:	
  6700                           
  6701                           ;scheduler.c: 43:                 sch_tasks[index].delay -= 1;
  6702  02CA  300D               	movlw	13
  6703  02CB  00F4               	movwf	??_sch_update
  6704  02CC  0874               	movf	??_sch_update,w
  6705  02CD  00F0               	movwf	i1___bmul@multiplicand
  6706  02CE  087A               	movf	sch_update@index,w
  6707  02CF  120A  158A  2545  120A  118A  	fcall	i1___bmul
  6708  02D4  3E21               	addlw	(low ((_sch_tasks| 0+1)))& (0+255)
  6709  02D5  0084               	movwf	4
  6710  02D6  3001               	movlw	1
  6711  02D7  1383               	bcf	3,7	;select IRP bank0
  6712  02D8  0280               	subwf	0,f
  6713  02D9  0A84               	incf	4,f
  6714  02DA  3000               	movlw	0
  6715  02DB  1C03               	skipc
  6716  02DC  3001               	movlw	1
  6717  02DD  0280               	subwf	0,f
  6718  02DE  0A84               	incf	4,f
  6719  02DF  3000               	movlw	0
  6720  02E0  1C03               	skipc
  6721  02E1  3001               	movlw	1
  6722  02E2  0280               	subwf	0,f
  6723  02E3  0A84               	incf	4,f
  6724  02E4  3000               	movlw	0
  6725  02E5  1C03               	skipc
  6726  02E6  3001               	movlw	1
  6727  02E7  0280               	subwf	0,f
  6728  02E8  3003               	movlw	3
  6729  02E9  0284               	subwf	4,f
  6730  02EA                     i1l2732:	
  6731                           
  6732                           ;scheduler.c: 46:     }
  6733  02EA  3001               	movlw	1
  6734  02EB  00F4               	movwf	??_sch_update
  6735  02EC  0874               	movf	??_sch_update,w
  6736  02ED  07FA               	addwf	sch_update@index,f
  6737  02EE                     i1l2734:	
  6738  02EE  3003               	movlw	3
  6739  02EF  027A               	subwf	sch_update@index,w
  6740  02F0  1C03               	skipc
  6741  02F1  2AF3               	goto	u232_21
  6742  02F2  2AF4               	goto	u232_20
  6743  02F3                     u232_21:	
  6744  02F3  2A27               	goto	i1l2722
  6745  02F4                     u232_20:	
  6746  02F4                     i1l247:	
  6747  02F4  0008               	return
  6748  02F5                     __end_of_sch_update:	
  6749                           
  6750                           	psect	text40
  6751  0D45                     __ptext40:	
  6752 ;; *************** function i1___bmul *****************
  6753 ;; Defined at:
  6754 ;;		line 4 in file "C:\Program Files (x86)\Microchip\xc8\v2.10\pic\sources\c90\common\Umul8.c"
  6755 ;; Parameters:    Size  Location     Type
  6756 ;;  multiplier      1    wreg     unsigned char 
  6757 ;;  multiplicand    1    0[COMMON] unsigned char 
  6758 ;; Auto vars:     Size  Location     Type
  6759 ;;  multiplier      1    2[COMMON] unsigned char 
  6760 ;;  __bmul          1    3[COMMON] unsigned char 
  6761 ;; Return value:  Size  Location     Type
  6762 ;;                  1    wreg      unsigned char 
  6763 ;; Registers used:
  6764 ;;		wreg, status,2, status,0
  6765 ;; Tracked objects:
  6766 ;;		On entry : 0/0
  6767 ;;		On exit  : 0/0
  6768 ;;		Unchanged: 0/0
  6769 ;; Data sizes:     COMMON   BANK0   BANK1   BANK3   BANK2
  6770 ;;      Params:         1       0       0       0       0
  6771 ;;      Locals:         2       0       0       0       0
  6772 ;;      Temps:          1       0       0       0       0
  6773 ;;      Totals:         4       0       0       0       0
  6774 ;;Total ram usage:        4 bytes
  6775 ;; Hardware stack levels used:    1
  6776 ;; This function calls:
  6777 ;;		Nothing
  6778 ;; This function is called by:
  6779 ;;		_sch_update
  6780 ;; This function uses a non-reentrant model
  6781 ;;
  6782                           
  6783                           
  6784                           ;psect for function i1___bmul
  6785  0D45                     i1___bmul:	
  6786                           
  6787                           ;incstack = 0
  6788                           ; Regs used in i1___bmul: [wreg+status,2+status,0]
  6789                           ;i1___bmul@multiplier stored from wreg
  6790  0D45  00F2               	movwf	i1___bmul@multiplier
  6791  0D46                     i1l2596:	
  6792  0D46  01F3               	clrf	i1___bmul@product
  6793  0D47                     i1l2598:	
  6794  0D47  1C72               	btfss	i1___bmul@multiplier,0
  6795  0D48  2D4A               	goto	u217_21
  6796  0D49  2D4B               	goto	u217_20
  6797  0D4A                     u217_21:	
  6798  0D4A  2D4F               	goto	i1l2602
  6799  0D4B                     u217_20:	
  6800  0D4B                     i1l2600:	
  6801  0D4B  0870               	movf	i1___bmul@multiplicand,w
  6802  0D4C  00F1               	movwf	??i1___bmul
  6803  0D4D  0871               	movf	??i1___bmul,w
  6804  0D4E  07F3               	addwf	i1___bmul@product,f
  6805  0D4F                     i1l2602:	
  6806  0D4F  1003               	clrc
  6807  0D50  0DF0               	rlf	i1___bmul@multiplicand,f
  6808  0D51                     i1l2604:	
  6809  0D51  1003               	clrc
  6810  0D52  0CF2               	rrf	i1___bmul@multiplier,f
  6811  0D53  0872               	movf	i1___bmul@multiplier,w
  6812  0D54  1D03               	btfss	3,2
  6813  0D55  2D57               	goto	u218_21
  6814  0D56  2D58               	goto	u218_20
  6815  0D57                     u218_21:	
  6816  0D57  2D47               	goto	i1l2598
  6817  0D58                     u218_20:	
  6818  0D58                     i1l2606:	
  6819  0D58  0873               	movf	i1___bmul@product,w
  6820  0D59                     i1l650:	
  6821  0D59  0008               	return
  6822  0D5A                     __end_ofi1___bmul:	
  6823  0002                     
  6824                           	psect	functab
  6825  0037                     __pfunctab:	
  6826  0037                     __fptable:	
  6827  0037                     fptable:	
  6828  0037  00FF               	movwf	(btemp+1)& (0+127)
  6829  0038  3000               	movlw	high fptable
  6830  0039  008A               	movwf	10
  6831  003A  087F               	movf	(btemp+1)& (0+127),w
  6832  003B  0782               	addwf	2,f
  6833  003C                     fpbase:	
  6834  003C  283C               	goto	fpbase	; Call via a null pointer and you will get stuck here.
  6835  003D                     fp_u0:	
  6836  003D  283D               	ljmp	fp_u0	; unused
  6837  003E                     fp__ssd_vid_update:	
  6838  003E  120A  118A  2BAC   	ljmp	_ssd_vid_update
  6839  0041                     fp__counter_vid_update:	
  6840  0041  120A  118A  2AF5   	ljmp	_counter_vid_update
  6841  0044                     fp__display_vid_blink:	
  6842  0044  120A  158A  2F32   	ljmp	_display_vid_blink
  6843  0047                     __end_of__fptable:	
  6844  0047                     __i1fptable:	
  6845  0047                     i1fptable:	
  6846  0047  00FF               	movwf	(btemp+1)& (0+127)
  6847  0048  3000               	movlw	high i1fptable
  6848  0049  008A               	movwf	10
  6849  004A  087F               	movf	(btemp+1)& (0+127),w
  6850  004B  0782               	addwf	2,f
  6851  004C                     i1fpbase:	
  6852  004C  284C               	goto	i1fpbase	; Call via a null pointer and you will get stuck here.
  6853  004D                     fp__sch_update:	
  6854  004D  120A  118A  2A26   	ljmp	_sch_update
  6855  0050                     __end_of__i1fptable:	
  6856  007E                     btemp	set	126	;btemp
  6857  007E                     wtemp0	set	126


Data Sizes:
    Strings     0
    Constant    0
    Data        3
    BSS         48
    Persistent  0
    Stack       0

Auto Spaces:
    Space          Size  Autos    Used
    COMMON           14     11      14
    BANK0            80     23      71
    BANK1            80      0       0
    BANK3            96      0       0
    BANK2            96      0       0

Pointer List with Targets:

    timer_vid_set_isr_0@callback_function	PTR FTN()void  size(1) Largest target is 1
		 -> sch_update(), 

    timer2_isr	PTR FTN()void  size(1) Largest target is 1
		 -> Absolute function(), 

    timer1_isr	PTR FTN()void  size(1) Largest target is 1
		 -> Absolute function(), 

    timer0_isr	PTR FTN()void  size(1) Largest target is 1
		 -> Absolute function(), sch_update(), 

    sch_u8_add_task@taskFunction	PTR FTN()void  size(1) Largest target is 1
		 -> ssd_vid_update(), display_vid_blink(), counter_vid_update(), 

    S168data$taskFunction	PTR FTN()void  size(1) Largest target is 1
		 -> Absolute function(), ssd_vid_update(), display_vid_blink(), counter_vid_update(), 

    sch_tasks.taskFunction	PTR FTN()void  size(1) Largest target is 1
		 -> Absolute function(), ssd_vid_update(), display_vid_blink(), counter_vid_update(), 


Critical Paths under _main in COMMON

    None.

Critical Paths under _timer_isr in COMMON

    _timer_isr->_sch_update
    _sch_update->i1___bmul

Critical Paths under _main in BANK0

    _main->_sch_vid_dispatch_tasks
    _ssd_vid_init->_dio_vid_set_pin_direction
    _sch_vid_init->_sch_vid_delete_task
    _sch_vid_dispatch_tasks->_ssd_vid_update
    _ssd_vid_update->___lwdiv
    _dio_vid_set_port_value->_ssd_u8_get_code
    _sch_vid_delete_task->___bmul
    _display_vid_blink->_ssd_vid_set_state
    _counter_vid_update->_dio_u8_read_pin_value
    _eeprom_external_vid_write->_i2c_u8_master_write_slave_address_with_write_req
    _dio_u8_read_pin_value->_dio_u8_read_port_value
    _sch_u8_add_task->___bmul
    _i2c_vid_master_init->_dio_vid_set_pin_direction
    _counter_vid_init->___awmod
    _eeprom_external_vid_read->_i2c_u8_master_write_slave_address_with_write_req

Critical Paths under _timer_isr in BANK0

    None.

Critical Paths under _main in BANK1

    None.

Critical Paths under _timer_isr in BANK1

    None.

Critical Paths under _main in BANK3

    None.

Critical Paths under _timer_isr in BANK3

    None.

Critical Paths under _main in BANK2

    None.

Critical Paths under _timer_isr in BANK2

    None.

Call Graph Tables:

 ---------------------------------------------------------------------------------
 (Depth) Function   	        Calls       Base Space   Used Autos Params    Refs
 ---------------------------------------------------------------------------------
 (0) _main                                                 0     0      0   16100
                   _counter_vid_init
                _i2c_vid_master_init
                    _sch_u8_add_task
             _sch_vid_dispatch_tasks
                       _sch_vid_init
                       _ssd_vid_init
 ---------------------------------------------------------------------------------
 (1) _ssd_vid_init                                         1     1      0    2342
                                             11 BANK0      1     1      0
          _dio_vid_set_pin_direction
         _dio_vid_set_port_direction
 ---------------------------------------------------------------------------------
 (2) _dio_vid_set_port_direction                           4     3      1     208
                                              6 BANK0      4     3      1
 ---------------------------------------------------------------------------------
 (1) _sch_vid_init                                         2     2      0     875
                                             12 BANK0      2     2      0
                _sch_vid_delete_task
                   _timer_vid_init_0
                _timer_vid_set_isr_0
 ---------------------------------------------------------------------------------
 (2) _timer_vid_set_isr_0                                  2     2      0      22
                                              6 BANK0      2     2      0
 ---------------------------------------------------------------------------------
 (2) _timer_vid_init_0                                     3     0      3     196
                                              6 BANK0      3     0      3
 ---------------------------------------------------------------------------------
 (1) _sch_vid_dispatch_tasks                               6     6      0    6849
                                             17 BANK0      6     6      0
                   Absolute function *
                             ___bmul
                 _counter_vid_update *
                  _display_vid_blink *
                _sch_vid_delete_task
                     _ssd_vid_update *
 ---------------------------------------------------------------------------------
 (2) _ssd_vid_update                                       3     3      0    4872
                                             14 BANK0      3     3      0
                            ___lwdiv
                            ___lwmod
              _dio_u8_read_pin_value
              _dio_vid_set_pin_value
             _dio_vid_set_port_value
                    _ssd_u8_get_code
 ---------------------------------------------------------------------------------
 (3) _ssd_u8_get_code                                      3     3      0      22
                                              6 BANK0      3     3      0
 ---------------------------------------------------------------------------------
 (3) _dio_vid_set_port_value                               4     3      1     512
                                              9 BANK0      4     3      1
                    _ssd_u8_get_code (ARG)
 ---------------------------------------------------------------------------------
 (3) _dio_vid_set_pin_value                                5     3      2    3046
                                              6 BANK0      5     3      2
 ---------------------------------------------------------------------------------
 (3) ___lwmod                                              6     2      4     463
                                              6 BANK0      6     2      4
 ---------------------------------------------------------------------------------
 (3) ___lwdiv                                              8     4      4     314
                                              6 BANK0      8     4      4
 ---------------------------------------------------------------------------------
 (2) _sch_vid_delete_task                                  2     2      0     589
                                             10 BANK0      2     2      0
                             ___bmul
 ---------------------------------------------------------------------------------
 (2) _display_vid_blink                                    0     0      0      22
                   _ssd_u8_get_state
                  _ssd_vid_set_state
 ---------------------------------------------------------------------------------
 (3) _ssd_u8_get_state                                     0     0      0       0
 ---------------------------------------------------------------------------------
 (2) _counter_vid_update                                   2     2      0     731
                                             13 BANK0      2     2      0
              _dio_u8_read_pin_value
          _eeprom_external_vid_write
                 _ssd_vid_set_symbol
 ---------------------------------------------------------------------------------
 (3) _eeprom_external_vid_write                            2     1      1     240
                                              8 BANK0      2     1      1
           _i2c_u8_master_write_byte
_i2c_u8_master_write_slave_address_w
                    _i2c_vid_restart
                      _i2c_vid_start
                       _i2c_vid_stop
 ---------------------------------------------------------------------------------
 (3) _dio_u8_read_pin_value                                4     3      1     469
                                              9 BANK0      4     3      1
             _dio_u8_read_port_value
 ---------------------------------------------------------------------------------
 (4) _dio_u8_read_port_value                               3     3      0      22
                                              6 BANK0      3     3      0
 ---------------------------------------------------------------------------------
 (7) Absolute function(Fake)                               0     0      0       0
 ---------------------------------------------------------------------------------
 (1) _sch_u8_add_task                                     12     4      8    1163
                                             10 BANK0     12     4      8
                             ___bmul
 ---------------------------------------------------------------------------------
 (3) ___bmul                                               4     3      1     479
                                              6 BANK0      4     3      1
 ---------------------------------------------------------------------------------
 (1) _i2c_vid_master_init                                  1     1      0    2134
                                             11 BANK0      1     1      0
          _dio_vid_set_pin_direction
 ---------------------------------------------------------------------------------
 (1) _counter_vid_init                                     2     2      0    2737
                                             13 BANK0      2     2      0
                            ___awmod
          _dio_vid_set_pin_direction
           _eeprom_external_vid_read
                  _ssd_vid_set_state
                 _ssd_vid_set_symbol
 ---------------------------------------------------------------------------------
 (3) _ssd_vid_set_symbol                                   3     3      0      22
                                              6 BANK0      3     3      0
 ---------------------------------------------------------------------------------
 (3) _ssd_vid_set_state                                    2     2      0      22
                                              6 BANK0      2     2      0
 ---------------------------------------------------------------------------------
 (2) _eeprom_external_vid_read                             3     3      0     111
                                              8 BANK0      3     3      0
            _i2c_u8_master_read_byte
           _i2c_u8_master_write_byte
_i2c_u8_master_write_slave_address_w
_i2c_u8_master_write_slave_address_w
                       _i2c_vid_nack
                    _i2c_vid_restart
                      _i2c_vid_start
                       _i2c_vid_stop
 ---------------------------------------------------------------------------------
 (4) _i2c_vid_stop                                         0     0      0       0
                       _i2c_vid_wait
 ---------------------------------------------------------------------------------
 (4) _i2c_vid_start                                        0     0      0       0
                       _i2c_vid_wait
 ---------------------------------------------------------------------------------
 (4) _i2c_vid_restart                                      0     0      0       0
                       _i2c_vid_wait
 ---------------------------------------------------------------------------------
 (3) _i2c_vid_nack                                         0     0      0       0
                       _i2c_vid_wait
 ---------------------------------------------------------------------------------
 (4) _i2c_u8_master_write_slave_address_with_write_req     2     2      0      22
                                              6 BANK0      2     2      0
                       _i2c_vid_wait
 ---------------------------------------------------------------------------------
 (3) _i2c_u8_master_write_slave_address_with_read_req      1     1      0      22
                                              6 BANK0      1     1      0
                       _i2c_vid_wait
 ---------------------------------------------------------------------------------
 (4) _i2c_u8_master_write_byte                             1     1      0      22
                                              6 BANK0      1     1      0
                       _i2c_vid_wait
 ---------------------------------------------------------------------------------
 (3) _i2c_u8_master_read_byte                              0     0      0       0
                       _i2c_vid_wait
 ---------------------------------------------------------------------------------
 (5) _i2c_vid_wait                                         0     0      0       0
 ---------------------------------------------------------------------------------
 (2) _dio_vid_set_pin_direction                            5     3      2    2134
                                              6 BANK0      5     3      2
 ---------------------------------------------------------------------------------
 (2) ___awmod                                              7     3      4     448
                                              6 BANK0      7     3      4
 ---------------------------------------------------------------------------------
 Estimated maximum stack depth 7
 ---------------------------------------------------------------------------------
 (Depth) Function   	        Calls       Base Space   Used Autos Params    Refs
 ---------------------------------------------------------------------------------
 (6) _timer_isr                                            6     6      0     401
                                              0 BANK0      6     6      0
                   Absolute function *
                         _sch_update *
 ---------------------------------------------------------------------------------
 (7) _sch_update                                           7     7      0     401
                                              4 COMMON     7     7      0
                           i1___bmul
 ---------------------------------------------------------------------------------
 (8) i1___bmul                                             4     3      1     201
                                              0 COMMON     4     3      1
 ---------------------------------------------------------------------------------
 (7) Absolute function(Fake)                               0     0      0       0
 ---------------------------------------------------------------------------------
 Estimated maximum stack depth 8
 ---------------------------------------------------------------------------------

 Call Graph Graphs:

 _main (ROOT)
   _counter_vid_init
     ___awmod
     _dio_vid_set_pin_direction
     _eeprom_external_vid_read
       _i2c_u8_master_read_byte
         _i2c_vid_wait
       _i2c_u8_master_write_byte
         _i2c_vid_wait
       _i2c_u8_master_write_slave_address_with_read_req
         _i2c_vid_wait
       _i2c_u8_master_write_slave_address_with_write_req
         _i2c_vid_wait
       _i2c_vid_nack
         _i2c_vid_wait
       _i2c_vid_restart
         _i2c_vid_wait
       _i2c_vid_start
         _i2c_vid_wait
       _i2c_vid_stop
         _i2c_vid_wait
     _ssd_vid_set_state
     _ssd_vid_set_symbol
   _i2c_vid_master_init
     _dio_vid_set_pin_direction
   _sch_u8_add_task
     ___bmul
   _sch_vid_dispatch_tasks
     Absolute function(Fake) *
     ___bmul *
     _counter_vid_update *
       _dio_u8_read_pin_value
         _dio_u8_read_port_value
       _eeprom_external_vid_write
         _i2c_u8_master_write_byte
           _i2c_vid_wait
         _i2c_u8_master_write_slave_address_with_write_req
           _i2c_vid_wait
         _i2c_vid_restart
           _i2c_vid_wait
         _i2c_vid_start
           _i2c_vid_wait
         _i2c_vid_stop
           _i2c_vid_wait
       _ssd_vid_set_symbol
     _display_vid_blink *
       _ssd_u8_get_state
       _ssd_vid_set_state
     _sch_vid_delete_task *
       ___bmul
     _ssd_vid_update *
       ___lwdiv
       ___lwmod
       _dio_u8_read_pin_value
         _dio_u8_read_port_value
       _dio_vid_set_pin_value
       _dio_vid_set_port_value
         _ssd_u8_get_code (ARG)
       _ssd_u8_get_code
   _sch_vid_init
     _sch_vid_delete_task
       ___bmul
     _timer_vid_init_0
     _timer_vid_set_isr_0
   _ssd_vid_init
     _dio_vid_set_pin_direction
     _dio_vid_set_port_direction

 _timer_isr (ROOT)
   Absolute function(Fake) *
   _sch_update *
     i1___bmul

 Address spaces:
Name               Size   Autos  Total    Cost      Usage
BANK3               60      0       0       9        0.0%
BITBANK3            60      0       0       8        0.0%
SFR3                 0      0       0       4        0.0%
BITSFR3              0      0       0       4        0.0%
BANK2               60      0       0      11        0.0%
BITBANK2            60      0       0      10        0.0%
SFR2                 0      0       0       5        0.0%
BITSFR2              0      0       0       5        0.0%
BANK1               50      0       0       7        0.0%
BITBANK1            50      0       0       6        0.0%
SFR1                 0      0       0       2        0.0%
BITSFR1              0      0       0       2        0.0%
BANK0               50     17      47       5       88.8%
BITBANK0            50      0       0       4        0.0%
SFR0                 0      0       0       1        0.0%
BITSFR0              0      0       0       1        0.0%
COMMON               E      B       E       1      100.0%
BITCOMMON            E      0       0       0        0.0%
CODE                 0      0       0       0        0.0%
DATA                 0      0      55      12        0.0%
ABS                  0      0      55       3        0.0%
NULL                 0      0       0       0        0.0%
STACK                0      0       0       2        0.0%
EEDATA             100      0       0       0        0.0%


Microchip Technology PIC Macro Assembler V2.10 build 88905656 
Symbol Table                                                                                   Wed Jul 08 20:17:31 2020

                                 ??_sch_vid_dispatch_tasks 005E  
                                                        pc 0002  
                                           ___bmul@product 0055  
                                              __CFG_CP$OFF 0000  
                                                       l71 0E07  
                                                       l56 0EF5  
                                                       l66 0E89  
                                                       l79 0DBA  
                                                       _RD 0C60  
                                                       _WR 0C61  
                                                       fsr 0004  
                                   __end_of_ssd_vid_update 045F  
                                timer_vid_init_0@prescaler 0053  
                                                      l104 0225  
                                                      l201 0D06  
                                                      l204 0CC8  
                                                      l212 07FF  
                                                      l207 0CD0  
                                                      l320 0652  
                                                      l129 0144  
                                                      l401 0D43  
                                                      l321 0658  
                                                      l402 0D44  
                                                      l322 065E  
                                                      l411 0D62  
                                                      l323 0664  
                                                      l324 066A  
                                                      l308 0CD8  
                                                      l413 0D67  
                                                      l405 0D2C  
                                                      l325 0670  
                                                      l414 0D70  
                                                      l326 0676  
                                                      l318 064C  
                                                      l238 0E30  
                                                      l407 0D30  
                                                      l503 03AB  
                                                      l263 04EF  
                                                      l408 0D31  
                                                      l256 057B  
                                                      l328 06AB  
                                                      l193 045E  
                                                      l267 05E1  
                                                      l372 0CF2  
                                                      l381 0D13  
                                                      l533 0F6F  
                                                      l189 0DDE  
                                                      l390 0D12  
                                                      l462 0EBE  
                                                      l375 0CFB  
                                                      l384 0D1F  
                                                      l393 0D96  
                                                      l465 0FC4  
                                                      l369 0E5C  
                                                      l378 0CE9  
                                                      l650 0D87  
                                                      l395 0D9A  
                                                      l459 0E98  
                                                      l396 0DA0  
                                                      l468 0FFF  
                                                      l494 0707  
                                                      l399 0D3F  
                                                      l906 0F31  
                                                      l790 0762  
                                                      l896 0FB5  
                                                      _GIE 005F  
                                                      _PS0 0408  
                                                      _PS1 0409  
                                                      _PS2 040A  
                                                      _PEN 048A  
                                             __CFG_CPD$OFF 0000  
                                                      _SEN 0488  
                                                      _PSA 040B  
                                                      fsr0 0004  
                                                      indf 0000  
                                   _dio_u8_read_port_value 0DDF  
                                             ___awmod@sign 0059  
                                             __CFG_FOSC$HS 0000  
                                             __CFG_LVP$OFF 0000  
                                                     l2100 0DEB  
                                                     l2110 0E06  
                                                     l2120 0CEA  
                                                     l2200 01C3  
                                                     l2130 0CE6  
                                                     l2122 0CEF  
                                                     l2210 01F8  
                                                     l2202 01D1  
                                                     l2300 0D5F  
                                                     l2140 0D23  
                                                     l2132 0D8B  
                                                     l2124 0CF3  
                                                     l2108 0DED  
                                                     l2212 01FD  
                                                     l2204 01D6  
                                                     l2070 0D13  
                                                     l2302 0D68  
                                                     l2142 0D28  
                                                     l2134 0D90  
                                                     l2126 0CF8  
                                                     l2310 0E93  
                                                     l2206 01E5  
                                                     l2150 0E67  
                                                     l2230 07C3  
                                                     l2400 0054  
                                                     l2072 0D19  
                                                     l2304 0D6D  
                                                     l2136 0D9B  
                                                     l2128 0CE1  
                                                     l2320 0D7D  
                                                     l2312 0EA3  
                                                     l2208 01EA  
                                                     l2216 020C  
                                                     l2152 0E6A  
                                                     l2144 0E60  
                                                     l2224 07C0  
                                                     l2410 0084  
                                                     l2402 0059  
                                                     l2322 0D7F  
                                                     l2314 0D74  
                                                     l2082 0DE5  
                                                     l2074 0DE2  
                                                     l2330 0F74  
                                                     l2154 0E6D  
                                                     l2146 0E61  
                                                     l3050 07DF  
                                                     l2250 07CD  
                                                     l2242 07C9  
                                                     l2234 07C5  
                                                     l2226 07C1  
                                                     l2420 00BF  
                                                     l2412 0094  
                                                     l2404 0069  
                                                     l2324 0D86  
                                                     l2316 0D75  
                                                     l2076 0DE3  
                                                     l2308 0E8D  
                                                     l2340 0F8C  
                                                     l2332 0F7A  
                                                     l2180 0161  
                                                     l2172 0148  
                                                     l3052 0E78  
                                                     l2148 0E64  
                                                     l2500 0306  
                                                     l3044 0EE4  
                                                     l2430 00EF  
                                                     l2422 00C4  
                                                     l2414 0099  
                                                     l2406 006E  
                                                     l2318 0D79  
                                                     l2094 0DE9  
                                                     l2166 0DA4  
                                                     l2342 0F9D  
                                                     l2334 0F7D  
                                                     l2350 0FB1  
                                                     l3054 0214  
                                                     l2190 0197  
                                                     l2182 0170  
                                                     l2174 0149  
                                                     l2158 0E70  
                                                     l2262 07D3  
                                                     l2254 07CF  
                                                     l2246 07CB  
                                                     l2238 07C7  
                                                     l2510 0327  
                                                     l2502 030D  
                                                     l3046 0686  
                                                     l2432 0100  
                                                     l2424 00D5  
                                                     l2416 00AA  
                                                     l2408 007F  
                                                     l2280 0CFF  
                                                     l3056 0DF5  
                                                     l2088 0DE7  
                                                     l2168 0DAF  
                                                     l2344 0FA3  
                                                     l2336 0F84  
                                                     l2328 0F70  
                                                     l2360 0F08  
                                                     l2192 019C  
                                                     l2184 0175  
                                                     l2176 014E  
                                                     l2272 07D7  
                                                     l2520 0357  
                                                     l2512 0334  
                                                     l2504 030F  
                                                     l3048 069D  
                                                     l3058 0133  
                                                     l2434 0105  
                                                     l2426 00DA  
                                                     l2418 00AF  
                                                     l2442 012B  
                                                     l2290 0D0A  
                                                     l2282 0CC5  
                                                     l2346 0FA4  
                                                     l2338 0F88  
                                                     l2370 0F27  
                                                     l2362 0F0C  
                                                     l2354 0EF6  
                                                     l2194 01AA  
                                                     l2186 0183  
                                                     l2178 015C  
                                                     l2266 07D5  
                                                     l2258 07D1  
                                                     l2450 03AC  
                                                     l2530 037E  
                                                     l2522 0359  
                                                     l2514 033A  
                                                     l2506 0311  
                                                     l2610 0DBB  
                                                     l2436 0115  
                                                     l2428 00EA  
                                                     l2292 0D0F  
                                                     l2620 0E54  
                                                     l2612 0E31  
                                                     l2348 0FAB  
                                                     l2364 0F10  
                                                     l2356 0EFE  
                                                     l2372 0F2D  
                                                     l2196 01AF  
                                                     l2188 0188  
                                                     l2460 0401  
                                                     l2452 03B3  
                                                     l2532 0382  
                                                     l2524 035B  
                                                     l2508 0313  
                                                     l2516 0341  
                                                     l2540 0F32  
                                                     l2380 0EC8  
                                                     l2438 011A  
                                                     l2294 0D35  
                                                     l2286 0CCC  
                                                     l2630 06AC  
                                                     l2622 0E55  
                                                     l2614 0E4D  
                                                     l2366 0F1A  
                                                     l2358 0F01  
                                                     l2198 01BE  
                                                     l2462 0430  
                                                     l2526 035D  
                                                     l2518 0350  
                                                     l2534 0388  
                                                     l2550 0F51  
                                                     l2542 0F3D  
                                                     l2470 0647  
                                                     l2382 0ECD  
                                                     l2390 0EDC  
                                                     l2560 070B  
                                                     l2296 0D3A  
                                                     l2288 0D07  
                                                     l2640 06F5  
                                                     l2632 06C6  
                                                     l2624 0E56  
                                                     l2616 0E50  
                                                     l2464 057F  
                                                     l2368 0F20  
                                                     l2456 03CC  
                                                     l2536 0399  
                                                     l2528 0371  
                                                     l2552 0F5B  
                                                     l2544 0F42  
                                                     l2384 0ED2  
                                                     l2376 0EC2  
                                                     l2570 071F  
                                                     l2562 070F  
                                                     l2298 0D5A  
                                                     l2490 0FBF  
                                                     l2642 06F9  
                                                     l2634 06D1  
                                                     l2626 0E57  
                                                     l2618 0E51  
                                                     l2466 0585  
                                                     l2458 03F2  
                                                     l2538 03A8  
                                                     l2554 0F62  
                                                     l2546 0F46  
                                                     l2474 067C  
                                                     l2386 0ED7  
                                                     l2378 0EC3  
                                                     l2580 0737  
                                                     l2572 0725  
                                                     l2564 0714  
                                                     l2492 0FCF  
                                                     l2644 06FF  
                                                     l2636 06D7  
                                                     l2628 0E58  
                                                     l2548 0F4B  
                                                     l2556 0F69  
                                                     l2476 06A2  
                                                     l2468 0CD4  
                                                     l2660 0E23  
                                                     l2652 0E0B  
                                                     l2590 0759  
                                                     l2582 0741  
                                                     l2574 0728  
                                                     l2566 0716  
                                                     l2558 0708  
                                                     l2398 0053  
                                                     l2494 0FFC  
                                                     l2638 06DD  
                                                     l2670 0513  
                                                     l2662 04F3  
                                                     l2478 06A8  
                                                     l2654 0E11  
                                                     l2646 0E08  
                                                     l2592 075E  
                                                     l2584 0747  
                                                     l2576 072F  
                                                     l2568 071A  
                                                     l2488 0FB9  
                                                     l2664 04F5  
                                                     l2656 0E17  
                                                     l2736 05E2  
                                                     l2586 074E  
                                                     l2578 0733  
                                                     l2674 051C  
                                                     l2666 04F9  
                                                     l2498 02F5  
                                                     l2690 04B9  
                                                     l2658 0E1D  
                                                     l2738 063E  
                                                     l2588 0754  
                                                     l2668 050B  
                                                     l2692 04DD  
                                                     l2684 0462  
                                                     l2686 0484  
                                                     l2694 04E3  
                                                     l2678 045F  
                                                     l2696 04E9  
                                                     l2688 0497  
                                                     _T0CS 040D  
                      dio_vid_set_pin_direction@portNumber 0057  
                                                     u2000 0357  
                                                     u2001 0356  
                                                     u2010 0371  
                                                     u2011 0370  
                                                     u2100 0725  
                                                     u1300 0D9A  
                                                     u2020 0399  
                                                     u2101 0724  
                                                     u1301 0D99  
                                                     u2021 0398  
                                                     u1310 0D30  
                                                     u2030 03A8  
                                                     u1311 0D2F  
                                                     u2031 03A7  
                                                     u2015 036D  
                                                     u2120 0737  
                                                     u2200 06DD  
                                                     u2040 0F3D  
                                                     u2121 0736  
                                                     u2201 06DC  
                                                     u2041 0F3C  
                                                     u2130 0741  
                                                     u2210 06F5  
                                                     u1410 019C  
                                                     u1330 014E  
                                                     u2050 0F42  
                                                     u2131 0740  
                                                     u2115 0729  
                                                     u2211 06F4  
                                                     u1411 019B  
                                                     u1331 014D  
                                                     u2051 0F41  
                                                     u1324 0DB5  
                                                     u1404 018E  
                                                     u2060 0F4B  
                                                     u2220 0E1D  
                                                     u1325 0DB3  
                                                     u1405 018C  
                                                     u2061 0F4A  
                                                     u2221 0E1C  
                                                     u2150 0754  
                                                     u2230 050B  
                                                     u1510 01FD  
                                                     u1430 01AF  
                                                     u1350 0161  
                                                     u2070 0F5B  
                                                     u2151 0753  
                                                     u2135 073D  
                                                     u2231 050A  
                                                     u1511 01FC  
                                                     u1431 01AE  
                                                     u1351 0160  
                                                     u2071 0F5A  
                                                     u2160 0759  
                                                     u2080 070F  
                                                     u1280 0D19  
                                                     u2240 0513  
                                                     u1600 0F8C  
                                                     u1504 01F0  
                                                     u1424 01A2  
                                                     u1344 0154  
                                                     u2161 0758  
                                                     u2145 0748  
                                                     u2081 070E  
                                                     u1281 0D18  
                                                     u2241 0512  
                                                     u1601 0F8B  
                                                     u1505 01EE  
                                                     u1425 01A0  
                                                     u1345 0152  
                                                     u2090 071A  
                                                     u1290 0D1F  
                                                     u1530 0D43  
                                                     u2250 051B  
                                                     u1450 01C3  
                                                     u1370 0175  
                                                     u2091 0719  
                                                     u1291 0D1E  
                                                     u1531 0D42  
                                                     u2251 051A  
                                                     u1451 01C2  
                                                     u1371 0174  
                                                     u1540 0D67  
                                                     u1620 0F9D  
                                                     u1700 0F2D  
                                                     u1524 0203  
                                                     u1444 01B5  
                                                     u1364 0167  
                                                     u2260 0484  
                                                     u1541 0D66  
                                                     u1621 0F9C  
                                                     u1701 0F2C  
                                                     u1525 0201  
                                                     u1445 01B3  
                                                     u1365 0165  
                                                     u2261 0483  
                                                     u1710 0059  
                                                     u2190 06D7  
                                                     u1550 0EA3  
                                                     u1470 01D6  
                                                     u1390 0188  
                                                     u2270 04DD  
                                                     u1711 0058  
                                                     u2191 06D6  
                                                     u1551 0EA2  
                                                     u1615 0F8D  
                                                     u1471 01D5  
                                                     u1391 0187  
                                                     u2271 04DC  
                                                     u1560 0D79  
                                                     u1640 0FB1  
                                                     u1464 01C9  
                                                     u1384 017B  
                                                     u2280 04EF  
                                                     u1561 0D78  
                                                     u1641 0FB0  
                                                     u1625 0F99  
                                                     u1465 01C7  
                                                     u1385 0179  
                                                     u2281 04EE  
                                                     u1810 00C4  
                                                     u1730 006E  
                                                     u1570 0D86  
                                                     u1650 0EFE  
                                                     u1490 01EA  
                                                     u1811 00C3  
                                                     u1731 006D  
                                                     u1571 0D85  
                                                     u1635 0FA5  
                                                     u1651 0EFD  
                                                     u1491 01E9  
                                                     u1804 00B5  
                                                     u1724 005F  
                                                     u1580 0F7A  
                                                     u1484 01DC  
                                                     u1805 00B3  
                                                     u1725 005D  
                                                     u1581 0F79  
                                                     u1485 01DA  
                                                     u1830 00DA  
                                                     u1750 0084  
                                                     u1670 0F10  
                                                     u1910 03B3  
                                                     u1831 00D9  
                                                     u1751 0083  
                                                     u1671 0F0F  
                                                     u1911 03B2  
                                                     u1904 0120  
                                                     u1824 00CA  
                                                     u1744 0074  
                                                     u1680 0F1A  
                                                     u1920 0401  
                                                     u1905 011E  
                                                     u1825 00C8  
                                                     u1745 0072  
                                                     u1681 0F19  
                                                     u1665 0F02  
                                                     u1921 0400  
                                                     u1850 00EF  
                                                     u1770 0099  
                                                     u1930 0585  
                                                     u1851 00EE  
                                                     u1771 0098  
                                                     u1931 0584  
                                                     u1595 0F7E  
                                                     u1844 00E0  
                                                     u1764 008A  
                                                     u1940 06A8  
                                                     u1845 00DE  
                                                     u1765 0088  
                                                     u1685 0F16  
                                                     u1941 06A7  
                                                     u1870 0105  
                                                     u1790 00AF  
                                                     u1950 0FCF  
                                                     u1871 0104  
                                                     u1791 00AE  
                                                     u1951 0FCE  
                                                     u1695 0F21  
                                                     u1864 00F5  
                                                     u1784 009F  
                                                     u1960 0306  
                                                     u1865 00F3  
                                                     u1785 009D  
                                                     u1961 0305  
                                                     u1890 011A  
                                                     u1970 030D  
                                                     u1891 0119  
                                                     u1971 030C  
                                                     _PEIE 005E  
                                                     u1884 010B  
                                                     u1980 0327  
                                                     u1885 0109  
                                                     u1981 0326  
                                                     u1990 0350  
                                                     u1991 034F  
                                                     u1985 0323  
                                                     _RCEN 048B  
                                                     _PIR1 000C  
                                                     _RSEN 0489  
                                                     _WREN 0C62  
                                             __CFG_WRT$OFF 0000  
                                    ??_sch_vid_delete_task 0057  
                                            fp__sch_update 004D  
                                                     _main 05E2  
                                      _timer_vid_set_isr_0 0CD1  
                                                     fp_u0 003D  
                          eeprom_external_vid_read@address 0056  
                                                     btemp 007E  
                                            __CFG_BOREN$ON 0000  
                                                     start 0012  
                                        ___bmul@multiplier 0056  
                                 __size_of_ssd_u8_get_code 0043  
                                            ?_i2c_vid_nack 0070  
                                            ?_i2c_vid_wait 0070  
                                            ?_i2c_vid_stop 0070  
                                          ?_ssd_vid_update 0070  
                                            _i2c_vid_start 0CEA  
                         dio_u8_read_port_value@portNumber 0055  
                                     ?_timer_vid_set_isr_0 0070  
                                                    ?_main 0070  
                                                    _ACKEN 048C  
                                                    _ACKDT 048D  
                                                    _EEADR 010D  
                                            __CFG_WDTE$OFF 0000  
                                          __end_of___awmod 0763  
                                        ??_i2c_vid_restart 0053  
                                          __end_of___lwdiv 0FB6  
                                                    i1l303 0791  
                                                    i1l305 07B2  
                                                    i1l247 02F4  
                                          __end_of___lwmod 0F32  
                                                    i1l650 0D59  
                                                    _PORTA 0005  
                                                    _PORTB 0006  
                                                    _PORTC 0007  
                                                    _PORTD 0008  
                                                    _PORTE 0009  
                                                    _SSPM0 00A0  
                                                    _SSPM1 00A1  
                                                    _SSPM2 00A2  
                                                    _SSPM3 00A3  
                                                    _TRISA 0085  
                                                    _TRISB 0086  
                                                    _TRISC 0087  
                                                    _TRISD 0088  
                                                    _TRISE 0089  
                                                    _SSPEN 00A5  
                                                    _SSPIF 0063  
                                            __CFG_PWRTE$ON 0000  
                        __size_of_eeprom_external_vid_read 004A  
                                ?_eeprom_external_vid_read 0070  
                                                    fpbase 003C  
                                         __end_ofi1___bmul 0D5A  
                                                    pclath 000A  
                                                    status 0003  
                                                    wtemp0 007E  
                                         _timer_vid_init_0 0647  
                                          __initialization 0015  
                                           ??_i2c_vid_nack 0053  
                                           ??_i2c_vid_wait 0053  
                                           ??_i2c_vid_stop 0053  
                                             __end_of_main 0647  
                          __size_of_sch_vid_dispatch_tasks 0091  
                           __size_of_dio_u8_read_pin_value 001A  
                                           ?_i2c_vid_start 0070  
                            __end_of_dio_u8_read_pin_value 0DBB  
                                    ??_timer_vid_set_isr_0 0053  
                                 __size_of_sch_u8_add_task 008C  
                                                   ??_main 0064  
                                 __end_of_ssd_u8_get_state 0CC9  
                                     fp__display_vid_blink 0044  
                                __size_of_counter_vid_init 005C  
                                                   _EEDATA 010C  
                                                   _EECON2 018D  
                                          sch_update@index 007A  
                                                   i1l2600 0D4B  
                                                   i1l2602 0D4F  
                                                   i1l2604 0D51  
                                                   i1l2606 0D58  
                                                   i1l2800 0780  
                                                   i1l2730 02CA  
                                                   i1l2722 0227  
                                                   i1l2802 07A1  
                                                   i1l2724 0239  
                                                   i1l2732 02EA  
                                                   i1l2716 0226  
                                                   i1l2734 02EE  
                                                   i1l2726 0259  
                                                   i1l2728 0299  
                                                   i1l2596 0D46  
                                                   i1l2598 0D47  
                                                   i1l2792 0763  
                                                   i1l2794 0767  
                                                   i1l2796 0768  
                                                   i1l2798 076E  
                                                   u230_20 0259  
                                                   u230_21 0258  
                                                   u231_20 0299  
                                                   u231_21 0298  
                                                   u232_20 02F4  
                                                   u240_20 0767  
                                                   u232_21 02F3  
                                                   u240_21 0766  
                     dio_vid_set_port_direction@portNumber 0056  
                                                   u217_20 0D4B  
                                                   u217_21 0D4A  
                                                   u241_24 0779  
                                                   u241_25 0777  
                                                   u218_20 0D58  
                                                   u242_20 0780  
                                                   u218_21 0D57  
                                                   u242_21 077F  
                                                   u243_24 0789  
                                                   u243_25 0787  
                                                   u244_24 079A  
                                                   u244_25 0798  
                                                   u229_20 0239  
                                                   u245_20 07A1  
                                                   u229_21 0238  
                                                   u245_21 07A0  
                                                   u246_24 07AA  
                                                   u246_25 07A8  
                                               __i1fptable 0047  
                                                   _TMR0IE 005D  
                                                   _TMR0IF 005A  
                                                   _TMR1IF 0060  
                                                   _TMR2IF 0061  
                                                   _SSPADD 0093  
                                                   _SSPBUF 0013  
                                         __end_of__fptable 0047  
                               ?_dio_vid_set_pin_direction 0053  
                                                   ___bmul 0D71  
                               __end_of_counter_vid_update 03AC  
                                      _i2c_vid_master_init 0E31  
                                                ??___awmod 0057  
                               ?_eeprom_external_vid_write 0055  
                                                ??___lwdiv 0057  
                                                ??___lwmod 0057  
                            eeprom_external_vid_write@data 0055  
                                          ___awmod@divisor 0053  
                                          ___awmod@counter 0058  
                                        ??_ssd_u8_get_code 0053  
                                                   fptable 0037  
                                                   fptotal 0006  
                      dio_vid_set_port_direction@direction 0053  
                                                   saved_w 007E  
                                     ?_i2c_vid_master_init 0070  
                                   _sch_vid_dispatch_tasks 045F  
                                  __end_of__initialization 0033  
                                    _dio_vid_set_pin_value 0145  
                                       ssd_vid_update@ones 005C  
                                    ssd_u8_get_code@number 0055  
                                       ssd_vid_update@tens 005D  
                                      ___bmul@multiplicand 0053  
                                           __pcstackCOMMON 0070  
                                             __pidataBANK0 0CC2  
                                            sch_vid_init@i 005A  
                                          ??_i2c_vid_start 0053  
                                 sch_vid_delete_task@index 0058  
                                            ?_sch_vid_init 0070  
                                  ?_dio_u8_read_port_value 0070  
                                                ?i1___bmul 0070  
                                       _ssd_vid_set_symbol 0CFC  
                     timer_vid_set_isr_0@callback_function 0054  
                                _settingModeSecondsCounter 0047  
                                    ??_i2c_vid_master_init 0058  
                                        ??_sch_u8_add_task 005F  
                                      ?_ssd_vid_set_symbol 0070  
                                     __end_of_i2c_vid_nack 0D13  
                                         i1___bmul@product 0073  
                                     __end_of_i2c_vid_wait 0D20  
                                 ?_i2c_u8_master_read_byte 0070  
                                     __end_of_i2c_vid_stop 0CFC  
                                               __pbssBANK0 0020  
                                 ??_dio_vid_set_port_value 0057  
                                          _i2c_vid_restart 0CE1  
                        __size_of_i2c_u8_master_write_byte 0012  
                                               __pmaintext 05E2  
                                ?_i2c_u8_master_write_byte 0070  
                                         ??_ssd_vid_update 005B  
                                     ??_ssd_vid_set_symbol 0053  
                                                  ?___bmul 0053  
                                               __pintentry 0004  
                           __end_of_dio_u8_read_port_value 0E08  
                                           ??_sch_vid_init 0059  
                               dio_vid_set_pin_value@index 0053  
                                                  _ACKSTAT 048E  
                                    fp__counter_vid_update 0041  
  __end_of_i2c_u8_master_write_slave_address_with_read_req 0D45  
 __size_of_i2c_u8_master_write_slave_address_with_read_req 0013  
        ??_i2c_u8_master_write_slave_address_with_read_req 0053  
         ?_i2c_u8_master_write_slave_address_with_read_req 0070  
          _i2c_u8_master_write_slave_address_with_read_req 0D32  
                               dio_vid_set_pin_value@value 0054  
                                               ??i1___bmul 0071  
                                 __end_of_timer_vid_init_0 06AC  
                                       __size_of_timer_isr 005A  
                              __end_of_sch_vid_delete_task 05E2  
                                         _counter_vid_init 06AC  
                                                  _SSPCON2 0091  
                                                  _SSPSTAT 0094  
                      __size_of_dio_vid_set_port_direction 0037  
                                   ?_dio_vid_set_pin_value 0053  
                                                  i1fpbase 004C  
                                          __size_of___bmul 0017  
                                                  ___awmod 0708  
                                                  ___lwdiv 0F70  
                                                  ___lwmod 0EF6  
                                                  __ptext1 0DBB  
                                                  __ptext2 0EBF  
                                                  __ptext3 0E08  
                                                  __ptext4 0CD1  
                                                  __ptext5 0647  
                                                  __ptext6 045F  
                                                  __ptext7 0F32  
                                                  __ptext8 02F5  
                                                  __ptext9 03AC  
                                   ssd_vid_set_state@state 0054  
                                      __size_of__i1fptable 0009  
                                                  _counter 0065  
                          __end_of_i2c_u8_master_read_byte 0D71  
                                         ___awmod@dividend 0055  
                                      i1___bmul@multiplier 0072  
                                        ?_ssd_u8_get_state 0070  
                                               _sch_update 0226  
                                                  clrloop0 0CDA  
                                       ??_ssd_u8_get_state 0053  
                                     end_of_initialization 0033  
                                  __end_of_i2c_vid_restart 0CEA  
                          __size_of_dio_vid_set_port_value 002D  
                              ??_dio_vid_set_pin_direction 0055  
                                          _ssd_u8_get_code 07BD  
                                        __end_of_timer_isr 07BD  
                              __end_of_timer_vid_set_isr_0 0CD9  
                                               _timer0_isr 007D  
                                               _timer1_isr 007C  
                                               _timer2_isr 007B  
                              ??_eeprom_external_vid_write 0056  
                                 _eeprom_external_vid_read 0FB6  
                                    _dio_u8_read_pin_value 0DA1  
                                    __size_of_i2c_vid_nack 000C  
                                     sch_u8_add_task@delay 0057  
                                    __size_of_i2c_vid_wait 000D  
                                     sch_u8_add_task@index 0062  
                                  ?_sch_vid_dispatch_tasks 0070  
                                    __size_of_i2c_vid_stop 0009  
                                       _counter_vid_update 02F5  
                                      ?_counter_vid_update 0070  
                                     __end_of_sch_vid_init 0E31  
                                            ?_ssd_vid_init 0070  
                                dio_u8_read_pin_value@port 0059  
                       __end_of_dio_vid_set_port_direction 0EF6  
                               _dio_vid_set_port_direction 0EBF  
                                             _i2c_vid_nack 0D07  
                                             _i2c_vid_wait 0D13  
                                             _i2c_vid_stop 0CF3  
                                           __end_of___bmul 0D88  
                                     ??_counter_vid_update 005A  
                                          _sch_u8_add_task 04F0  
                                   _dio_vid_set_port_value 0E5D  
                           __end_of_sch_vid_dispatch_tasks 04F0  
                                _dio_vid_set_pin_direction 0050  
                                        __size_ofi1___bmul 0015  
                                      start_initialization 0015  
                                              ?_sch_update 0070  
                                _eeprom_external_vid_write 0E8A  
                         __end_of_i2c_u8_master_write_byte 0D32  
                                  __end_of_ssd_u8_get_code 0800  
                                           ??_ssd_vid_init 0058  
                                         ?_i2c_vid_restart 0070  
                                          _settingModeFlag 004B  
                         __size_of_i2c_u8_master_read_byte 0017  
                             i2c_u8_master_write_byte@data 0053  
                                                 ??___bmul 0054  
                                 __end_of_counter_vid_init 0708  
                                              __pdataBANK0 0064  
                                    __end_of_i2c_vid_start 0CF3  
                                   ?_dio_u8_read_pin_value 0056  
                              __end_of_i2c_vid_master_init 0E5D  
                                       __end_of__i1fptable 0050  
                               dio_u8_read_pin_value@index 0056  
                                              __pbssCOMMON 007B  
                                                ___latbits 0002  
                                        ?_timer_vid_init_0 0053  
                                            __pcstackBANK0 004D  
                                  ??_dio_vid_set_pin_value 0055  
                                        __size_of__fptable 0010  
                                       ??_timer_vid_init_0 0056  
                                        _ssd_vid_set_state 0CC9  
                                       ?_ssd_vid_set_state 0070  
                       dio_vid_set_pin_direction@direction 0054  
   i2c_u8_master_write_slave_address_with_read_req@address 0053  
                                  __end_of_sch_u8_add_task 057C  
                                         ___lwdiv@dividend 0055  
                                      ??_ssd_vid_set_state 0053  
                         dio_vid_set_port_value@portNumber 0059  
                                                __pfunctab 0037  
                              __size_of_ssd_vid_set_symbol 000B  
                                                 ?___awmod 0053  
                                                 ?___lwdiv 0053  
                                                 ?___lwmod 0053  
                                      __size_of_sch_update 00CF  
                                __end_of_ssd_vid_set_state 0CD1  
                                    __size_of_sch_vid_init 0029  
                                         ___lwdiv@quotient 0058  
                                         ?_ssd_u8_get_code 0070  
                                        interrupt_function 0004  
                                                _sch_tasks 0020  
  i2c_u8_master_write_slave_address_with_write_req@address 0054  
                          dio_vid_set_pin_value@portNumber 0057  
                                 _i2c_u8_master_write_byte 0D20  
                             __size_of_sch_vid_delete_task 0066  
                                                clear_ram0 0CD9  
                          dio_u8_read_pin_value@portNumber 0058  
                                    i1___bmul@multiplicand 0070  
                                __size_of_ssd_u8_get_state 0004  
                              sch_vid_dispatch_tasks@index 0063  
                               ??_eeprom_external_vid_read 0055  
                             ??_dio_vid_set_port_direction 0054  
                             eeprom_external_vid_read@data 0057  
                                              _displayFlag 0064  
                                                _timer_isr 0763  
                                                _ssdSymbol 0049  
                                        _display_vid_blink 0F32  
                                             _sch_vid_init 0E08  
                                                 i1___bmul 0D45  
                                     __end_of_ssd_vid_init 0DDF  
                                       ?_display_vid_blink 0070  
                                  __size_of_ssd_vid_update 00B3  
                                        fp__ssd_vid_update 003E  
 __end_of_i2c_u8_master_write_slave_address_with_write_req 0DA1  
__size_of_i2c_u8_master_write_slave_address_with_write_req 0019  
       ??_i2c_u8_master_write_slave_address_with_write_req 0053  
        ?_i2c_u8_master_write_slave_address_with_write_req 0070  
         _i2c_u8_master_write_slave_address_with_write_req 0D88  
                                      ??_display_vid_blink 0055  
                                                 i1fptable 0047  
                                                 i1fptotal 0002  
                       __size_of_dio_vid_set_pin_direction 00F5  
                              dio_vid_set_port_value@value 0056  
                           dio_vid_set_pin_direction@index 0053  
                              ?_dio_vid_set_port_direction 0053  
                       __size_of_eeprom_external_vid_write 0035  
                                 ??_dio_u8_read_port_value 0053  
                                  _i2c_u8_master_read_byte 0D5A  
                                         ?_sch_u8_add_task 0057  
                                __end_of_display_vid_blink 0F70  
                                  ?_dio_vid_set_port_value 0056  
                                               ?_timer_isr 0070  
                                         __size_of___awmod 005B  
                                         __size_of___lwdiv 0046  
                                         __size_of___lwmod 003C  
                             __size_of_timer_vid_set_isr_0 0008  
                                                 __fptable 0037  
                         eeprom_external_vid_write@address 0056  
                                          ___lwdiv@divisor 0053  
                               __size_of_ssd_vid_set_state 0008  
                                          ___lwdiv@counter 005A  
                                                 __ptext10 07BD  
                                                 __ptext11 0E5D  
                                                 __ptext20 04F0  
                                                 __ptext12 0145  
                                                 __ptext21 0D71  
                                                 __ptext13 0EF6  
                                                 __ptext30 0D07  
                                                 __ptext22 0E31  
                                                 __ptext14 0F70  
                                                 __ptext31 0D88  
                                                 __ptext23 06AC  
                                                 __ptext15 057C  
                                                 __ptext40 0D45  
                                                 __ptext32 0D32  
                                                 __ptext24 0CFC  
                                                 __ptext16 0CC5  
                                                 __ptext33 0D20  
                                                 __ptext25 0CC9  
                                                 __ptext17 0E8A  
                                                 __ptext34 0D5A  
                                                 __ptext26 0FB6  
                                                 __ptext18 0DA1  
                                                 __ptext35 0D13  
                                                 __ptext27 0CF3  
                                                 __ptext19 0DDF  
                                                 __ptext36 0050  
                                                 __ptext28 0CEA  
                                                 __ptext37 0708  
                                                 __ptext29 0CE1  
                                                 __ptext38 0763  
                                                 __ptext39 0226  
                                             ??_sch_update 0074  
                        __end_of_dio_vid_set_pin_direction 0145  
                              sch_u8_add_task@taskFunction 0061  
                                            __size_of_main 0065  
                           __end_of_dio_vid_set_port_value 0E8A  
                        __end_of_eeprom_external_vid_write 0EBF  
                                                 _ssdState 0066  
                                  ??_dio_u8_read_pin_value 0057  
                                        ?_counter_vid_init 0070  
                              __size_of_counter_vid_update 00B7  
                                       __end_of_sch_update 02F5  
                                       ??_counter_vid_init 005A  
                           __size_of_dio_vid_set_pin_value 00E1  
                            __end_of_dio_vid_set_pin_value 0226  
                                                 intlevel1 0037  
                                         ___lwmod@dividend 0055  
                                ??_i2c_u8_master_read_byte 0053  
                                __size_of_timer_vid_init_0 0065  
                                         _ssd_u8_get_state 0CC5  
                          __size_of_dio_u8_read_port_value 0029  
                         __end_of_eeprom_external_vid_read 1000  
                          timer_vid_init_0@interruptEnable 0055  
                                 __size_of_i2c_vid_restart 0009  
                                    __size_of_ssd_vid_init 0024  
                               __size_of_display_vid_blink 003E  
                                              ??_timer_isr 004D  
                                      _sch_vid_delete_task 057C  
                                           _ssd_vid_update 03AC  
                                          ___lwmod@divisor 0053  
                                          ___lwmod@counter 0058  
                                        _buttonPressedFlag 004C  
                               ??_i2c_u8_master_write_byte 0053  
                             __size_of_i2c_vid_master_init 002C  
                                   __size_of_i2c_vid_start 0009  
                                     ?_sch_vid_delete_task 0070  
                                             _ssd_vid_init 0DBB  
                                    sch_u8_add_task@period 005B  
                                 ssd_vid_set_symbol@symbol 0055  
                               __end_of_ssd_vid_set_symbol 0D07  
